
vec_mul:     file format elf64-littleriscv


Disassembly of section .text:

00000000000100b0 <register_fini>:
   100b0:	00000793          	li	a5,0
   100b4:	c791                	beqz	a5,100c0 <register_fini+0x10>
   100b6:	655d                	lui	a0,0x17
   100b8:	8de50513          	addi	a0,a0,-1826 # 168de <__libc_fini_array>
   100bc:	26b0e06f          	j	1eb26 <atexit>
   100c0:	8082                	ret

00000000000100c2 <_start>:
   100c2:	00017197          	auipc	gp,0x17
   100c6:	8be18193          	addi	gp,gp,-1858 # 26980 <__global_pointer$>
   100ca:	8ca18513          	addi	a0,gp,-1846 # 2624a <__bss_start>
   100ce:	0045a617          	auipc	a2,0x45a
   100d2:	41260613          	addi	a2,a2,1042 # 46a4e0 <__BSS_END__>
   100d6:	8e09                	sub	a2,a2,a0
   100d8:	4581                	li	a1,0
   100da:	5f1010ef          	jal	ra,11eca <memset>
   100de:	0000f517          	auipc	a0,0xf
   100e2:	a4850513          	addi	a0,a0,-1464 # 1eb26 <atexit>
   100e6:	c519                	beqz	a0,100f4 <_start+0x32>
   100e8:	00006517          	auipc	a0,0x6
   100ec:	7f650513          	addi	a0,a0,2038 # 168de <__libc_fini_array>
   100f0:	2370e0ef          	jal	ra,1eb26 <atexit>
   100f4:	5a4010ef          	jal	ra,11698 <__libc_init_array>
   100f8:	4502                	lw	a0,0(sp)
   100fa:	002c                	addi	a1,sp,8
   100fc:	4601                	li	a2,0
   100fe:	3a8000ef          	jal	ra,104a6 <main>
   10102:	a531                	j	1070e <exit>

0000000000010104 <__do_global_dtors_aux>:
   10104:	9001c703          	lbu	a4,-1792(gp) # 26280 <completed.1>
   10108:	e71d                	bnez	a4,10136 <__do_global_dtors_aux+0x32>
   1010a:	1141                	addi	sp,sp,-16
   1010c:	e022                	sd	s0,0(sp)
   1010e:	843e                	mv	s0,a5
   10110:	e406                	sd	ra,8(sp)
   10112:	00000793          	li	a5,0
   10116:	cb89                	beqz	a5,10128 <__do_global_dtors_aux+0x24>
   10118:	00025537          	lui	a0,0x25
   1011c:	00050513          	mv	a0,a0
   10120:	00000097          	auipc	ra,0x0
   10124:	000000e7          	jalr	zero # 0 <register_fini-0x100b0>
   10128:	4785                	li	a5,1
   1012a:	60a2                	ld	ra,8(sp)
   1012c:	90f18023          	sb	a5,-1792(gp) # 26280 <completed.1>
   10130:	6402                	ld	s0,0(sp)
   10132:	0141                	addi	sp,sp,16
   10134:	8082                	ret
   10136:	8082                	ret

0000000000010138 <frame_dummy>:
   10138:	00000793          	li	a5,0
   1013c:	cb99                	beqz	a5,10152 <frame_dummy+0x1a>
   1013e:	00025537          	lui	a0,0x25
   10142:	90818593          	addi	a1,gp,-1784 # 26288 <object.0>
   10146:	00050513          	mv	a0,a0
   1014a:	00000317          	auipc	t1,0x0
   1014e:	00000067          	jr	zero # 0 <register_fini-0x100b0>
   10152:	8082                	ret

0000000000010154 <read_data>:
   10154:	711d                	addi	sp,sp,-96
   10156:	ec86                	sd	ra,88(sp)
   10158:	e8a2                	sd	s0,80(sp)
   1015a:	1080                	addi	s0,sp,96
   1015c:	000237b7          	lui	a5,0x23
   10160:	77078593          	addi	a1,a5,1904 # 23770 <__clzdi2+0x34>
   10164:	000237b7          	lui	a5,0x23
   10168:	77878513          	addi	a0,a5,1912 # 23778 <__clzdi2+0x3c>
   1016c:	415000ef          	jal	ra,10d80 <fopen>
   10170:	fca43023          	sd	a0,-64(s0)
   10174:	000237b7          	lui	a5,0x23
   10178:	77078593          	addi	a1,a5,1904 # 23770 <__clzdi2+0x34>
   1017c:	000237b7          	lui	a5,0x23
   10180:	78878513          	addi	a0,a5,1928 # 23788 <__clzdi2+0x4c>
   10184:	3fd000ef          	jal	ra,10d80 <fopen>
   10188:	faa43c23          	sd	a0,-72(s0)
   1018c:	000237b7          	lui	a5,0x23
   10190:	77078593          	addi	a1,a5,1904 # 23770 <__clzdi2+0x34>
   10194:	000237b7          	lui	a5,0x23
   10198:	79878513          	addi	a0,a5,1944 # 23798 <__clzdi2+0x5c>
   1019c:	3e5000ef          	jal	ra,10d80 <fopen>
   101a0:	faa43823          	sd	a0,-80(s0)
   101a4:	fe042623          	sw	zero,-20(s0)
   101a8:	a859                	j	1023e <read_data+0xea>
   101aa:	fe042423          	sw	zero,-24(s0)
   101ae:	a895                	j	10222 <read_data+0xce>
   101b0:	fe042223          	sw	zero,-28(s0)
   101b4:	a83d                	j	101f2 <read_data+0x9e>
   101b6:	fe442703          	lw	a4,-28(s0)
   101ba:	fec42783          	lw	a5,-20(s0)
   101be:	00c79693          	slli	a3,a5,0xc
   101c2:	fe842783          	lw	a5,-24(s0)
   101c6:	97b6                	add	a5,a5,a3
   101c8:	079a                	slli	a5,a5,0x6
   101ca:	973e                	add	a4,a4,a5
   101cc:	000267b7          	lui	a5,0x26
   101d0:	2b878793          	addi	a5,a5,696 # 262b8 <dat>
   101d4:	97ba                	add	a5,a5,a4
   101d6:	863e                	mv	a2,a5
   101d8:	000237b7          	lui	a5,0x23
   101dc:	7a878593          	addi	a1,a5,1960 # 237a8 <__clzdi2+0x6c>
   101e0:	fb843503          	ld	a0,-72(s0)
   101e4:	78f000ef          	jal	ra,11172 <fscanf>
   101e8:	fe442783          	lw	a5,-28(s0)
   101ec:	2785                	addiw	a5,a5,1
   101ee:	fef42223          	sw	a5,-28(s0)
   101f2:	fe442783          	lw	a5,-28(s0)
   101f6:	0007871b          	sext.w	a4,a5
   101fa:	03f00793          	li	a5,63
   101fe:	fae7dce3          	bge	a5,a4,101b6 <read_data+0x62>
   10202:	fac40793          	addi	a5,s0,-84
   10206:	863e                	mv	a2,a5
   10208:	000237b7          	lui	a5,0x23
   1020c:	7b078593          	addi	a1,a5,1968 # 237b0 <__clzdi2+0x74>
   10210:	fb843503          	ld	a0,-72(s0)
   10214:	75f000ef          	jal	ra,11172 <fscanf>
   10218:	fe842783          	lw	a5,-24(s0)
   1021c:	2785                	addiw	a5,a5,1
   1021e:	fef42423          	sw	a5,-24(s0)
   10222:	fe842783          	lw	a5,-24(s0)
   10226:	0007871b          	sext.w	a4,a5
   1022a:	6785                	lui	a5,0x1
   1022c:	c3f78793          	addi	a5,a5,-961 # c3f <register_fini-0xf471>
   10230:	f8e7d0e3          	bge	a5,a4,101b0 <read_data+0x5c>
   10234:	fec42783          	lw	a5,-20(s0)
   10238:	2785                	addiw	a5,a5,1
   1023a:	fef42623          	sw	a5,-20(s0)
   1023e:	fec42783          	lw	a5,-20(s0)
   10242:	2781                	sext.w	a5,a5
   10244:	f6f053e3          	blez	a5,101aa <read_data+0x56>
   10248:	fe042023          	sw	zero,-32(s0)
   1024c:	a8c5                	j	1033c <read_data+0x1e8>
   1024e:	fc042e23          	sw	zero,-36(s0)
   10252:	a8d9                	j	10328 <read_data+0x1d4>
   10254:	fc042c23          	sw	zero,-40(s0)
   10258:	a875                	j	10314 <read_data+0x1c0>
   1025a:	fc042a23          	sw	zero,-44(s0)
   1025e:	a879                	j	102fc <read_data+0x1a8>
   10260:	fc042823          	sw	zero,-48(s0)
   10264:	a8bd                	j	102e2 <read_data+0x18e>
   10266:	fd042703          	lw	a4,-48(s0)
   1026a:	fd842683          	lw	a3,-40(s0)
   1026e:	fdc42783          	lw	a5,-36(s0)
   10272:	96be                	add	a3,a3,a5
   10274:	fe042783          	lw	a5,-32(s0)
   10278:	97b6                	add	a5,a5,a3
   1027a:	00579693          	slli	a3,a5,0x5
   1027e:	fd442783          	lw	a5,-44(s0)
   10282:	97b6                	add	a5,a5,a3
   10284:	079a                	slli	a5,a5,0x6
   10286:	973e                	add	a4,a4,a5
   10288:	000667b7          	lui	a5,0x66
   1028c:	2b878793          	addi	a5,a5,696 # 662b8 <wt>
   10290:	97ba                	add	a5,a5,a4
   10292:	863e                	mv	a2,a5
   10294:	000237b7          	lui	a5,0x23
   10298:	7a878593          	addi	a1,a5,1960 # 237a8 <__clzdi2+0x6c>
   1029c:	fc043503          	ld	a0,-64(s0)
   102a0:	6d3000ef          	jal	ra,11172 <fscanf>
   102a4:	fd042783          	lw	a5,-48(s0)
   102a8:	0007871b          	sext.w	a4,a5
   102ac:	47fd                	li	a5,31
   102ae:	00f70a63          	beq	a4,a5,102c2 <read_data+0x16e>
   102b2:	fd042783          	lw	a5,-48(s0)
   102b6:	0007871b          	sext.w	a4,a5
   102ba:	03f00793          	li	a5,63
   102be:	00f71d63          	bne	a4,a5,102d8 <read_data+0x184>
   102c2:	fac40793          	addi	a5,s0,-84
   102c6:	863e                	mv	a2,a5
   102c8:	000237b7          	lui	a5,0x23
   102cc:	7b078593          	addi	a1,a5,1968 # 237b0 <__clzdi2+0x74>
   102d0:	fc043503          	ld	a0,-64(s0)
   102d4:	69f000ef          	jal	ra,11172 <fscanf>
   102d8:	fd042783          	lw	a5,-48(s0)
   102dc:	2785                	addiw	a5,a5,1
   102de:	fcf42823          	sw	a5,-48(s0)
   102e2:	fd042783          	lw	a5,-48(s0)
   102e6:	0007871b          	sext.w	a4,a5
   102ea:	03f00793          	li	a5,63
   102ee:	f6e7dce3          	bge	a5,a4,10266 <read_data+0x112>
   102f2:	fd442783          	lw	a5,-44(s0)
   102f6:	2785                	addiw	a5,a5,1
   102f8:	fcf42a23          	sw	a5,-44(s0)
   102fc:	fd442783          	lw	a5,-44(s0)
   10300:	0007871b          	sext.w	a4,a5
   10304:	47fd                	li	a5,31
   10306:	f4e7dde3          	bge	a5,a4,10260 <read_data+0x10c>
   1030a:	fd842783          	lw	a5,-40(s0)
   1030e:	2785                	addiw	a5,a5,1
   10310:	fcf42c23          	sw	a5,-40(s0)
   10314:	fd842783          	lw	a5,-40(s0)
   10318:	2781                	sext.w	a5,a5
   1031a:	f4f050e3          	blez	a5,1025a <read_data+0x106>
   1031e:	fdc42783          	lw	a5,-36(s0)
   10322:	2785                	addiw	a5,a5,1
   10324:	fcf42e23          	sw	a5,-36(s0)
   10328:	fdc42783          	lw	a5,-36(s0)
   1032c:	2781                	sext.w	a5,a5
   1032e:	f2f053e3          	blez	a5,10254 <read_data+0x100>
   10332:	fe042783          	lw	a5,-32(s0)
   10336:	2785                	addiw	a5,a5,1
   10338:	fef42023          	sw	a5,-32(s0)
   1033c:	fe042783          	lw	a5,-32(s0)
   10340:	0007871b          	sext.w	a4,a5
   10344:	479d                	li	a5,7
   10346:	f0e7d4e3          	bge	a5,a4,1024e <read_data+0xfa>
   1034a:	fc042623          	sw	zero,-52(s0)
   1034e:	a0ad                	j	103b8 <read_data+0x264>
   10350:	fc042423          	sw	zero,-56(s0)
   10354:	a815                	j	10388 <read_data+0x234>
   10356:	fc842703          	lw	a4,-56(s0)
   1035a:	fcc42783          	lw	a5,-52(s0)
   1035e:	079a                	slli	a5,a5,0x6
   10360:	973e                	add	a4,a4,a5
   10362:	0006a7b7          	lui	a5,0x6a
   10366:	2b878793          	addi	a5,a5,696 # 6a2b8 <base>
   1036a:	97ba                	add	a5,a5,a4
   1036c:	863e                	mv	a2,a5
   1036e:	000237b7          	lui	a5,0x23
   10372:	7a878593          	addi	a1,a5,1960 # 237a8 <__clzdi2+0x6c>
   10376:	fb043503          	ld	a0,-80(s0)
   1037a:	5f9000ef          	jal	ra,11172 <fscanf>
   1037e:	fc842783          	lw	a5,-56(s0)
   10382:	2785                	addiw	a5,a5,1
   10384:	fcf42423          	sw	a5,-56(s0)
   10388:	fc842783          	lw	a5,-56(s0)
   1038c:	0007871b          	sext.w	a4,a5
   10390:	03f00793          	li	a5,63
   10394:	fce7d1e3          	bge	a5,a4,10356 <read_data+0x202>
   10398:	fac40793          	addi	a5,s0,-84
   1039c:	863e                	mv	a2,a5
   1039e:	000237b7          	lui	a5,0x23
   103a2:	7b078593          	addi	a1,a5,1968 # 237b0 <__clzdi2+0x74>
   103a6:	fc043503          	ld	a0,-64(s0)
   103aa:	5c9000ef          	jal	ra,11172 <fscanf>
   103ae:	fcc42783          	lw	a5,-52(s0)
   103b2:	2785                	addiw	a5,a5,1
   103b4:	fcf42623          	sw	a5,-52(s0)
   103b8:	fcc42783          	lw	a5,-52(s0)
   103bc:	0007871b          	sext.w	a4,a5
   103c0:	479d                	li	a5,7
   103c2:	f8e7d7e3          	bge	a5,a4,10350 <read_data+0x1fc>
   103c6:	fc043503          	ld	a0,-64(s0)
   103ca:	420000ef          	jal	ra,107ea <fclose>
   103ce:	fb843503          	ld	a0,-72(s0)
   103d2:	418000ef          	jal	ra,107ea <fclose>
   103d6:	000237b7          	lui	a5,0x23
   103da:	7b878513          	addi	a0,a5,1976 # 237b8 <__clzdi2+0x7c>
   103de:	581010ef          	jal	ra,1215e <puts>
   103e2:	0001                	nop
   103e4:	60e6                	ld	ra,88(sp)
   103e6:	6446                	ld	s0,80(sp)
   103e8:	6125                	addi	sp,sp,96
   103ea:	8082                	ret

00000000000103ec <read_data_test>:
   103ec:	1101                	addi	sp,sp,-32
   103ee:	ec06                	sd	ra,24(sp)
   103f0:	e822                	sd	s0,16(sp)
   103f2:	1000                	addi	s0,sp,32
   103f4:	000237b7          	lui	a5,0x23
   103f8:	7e878513          	addi	a0,a5,2024 # 237e8 <__clzdi2+0xac>
   103fc:	3db010ef          	jal	ra,11fd6 <printf>
   10400:	fe042623          	sw	zero,-20(s0)
   10404:	a03d                	j	10432 <read_data_test+0x46>
   10406:	fec42703          	lw	a4,-20(s0)
   1040a:	000267b7          	lui	a5,0x26
   1040e:	2b878793          	addi	a5,a5,696 # 262b8 <dat>
   10412:	97ba                	add	a5,a5,a4
   10414:	0007c783          	lbu	a5,0(a5)
   10418:	2781                	sext.w	a5,a5
   1041a:	85be                	mv	a1,a5
   1041c:	000237b7          	lui	a5,0x23
   10420:	7f878513          	addi	a0,a5,2040 # 237f8 <__clzdi2+0xbc>
   10424:	3b3010ef          	jal	ra,11fd6 <printf>
   10428:	fec42783          	lw	a5,-20(s0)
   1042c:	2785                	addiw	a5,a5,1
   1042e:	fef42623          	sw	a5,-20(s0)
   10432:	fec42783          	lw	a5,-20(s0)
   10436:	0007871b          	sext.w	a4,a5
   1043a:	03f00793          	li	a5,63
   1043e:	fce7d4e3          	bge	a5,a4,10406 <read_data_test+0x1a>
   10442:	4529                	li	a0,10
   10444:	3c3010ef          	jal	ra,12006 <putchar>
   10448:	000247b7          	lui	a5,0x24
   1044c:	80078513          	addi	a0,a5,-2048 # 23800 <__clzdi2+0xc4>
   10450:	387010ef          	jal	ra,11fd6 <printf>
   10454:	fe042423          	sw	zero,-24(s0)
   10458:	a03d                	j	10486 <read_data_test+0x9a>
   1045a:	fe842703          	lw	a4,-24(s0)
   1045e:	000667b7          	lui	a5,0x66
   10462:	2b878793          	addi	a5,a5,696 # 662b8 <wt>
   10466:	97ba                	add	a5,a5,a4
   10468:	0007c783          	lbu	a5,0(a5)
   1046c:	2781                	sext.w	a5,a5
   1046e:	85be                	mv	a1,a5
   10470:	000237b7          	lui	a5,0x23
   10474:	7f878513          	addi	a0,a5,2040 # 237f8 <__clzdi2+0xbc>
   10478:	35f010ef          	jal	ra,11fd6 <printf>
   1047c:	fe842783          	lw	a5,-24(s0)
   10480:	2785                	addiw	a5,a5,1
   10482:	fef42423          	sw	a5,-24(s0)
   10486:	fe842783          	lw	a5,-24(s0)
   1048a:	0007871b          	sext.w	a4,a5
   1048e:	03f00793          	li	a5,63
   10492:	fce7d4e3          	bge	a5,a4,1045a <read_data_test+0x6e>
   10496:	4529                	li	a0,10
   10498:	36f010ef          	jal	ra,12006 <putchar>
   1049c:	0001                	nop
   1049e:	60e2                	ld	ra,24(sp)
   104a0:	6442                	ld	s0,16(sp)
   104a2:	6105                	addi	sp,sp,32
   104a4:	8082                	ret

00000000000104a6 <main>:
   104a6:	7155                	addi	sp,sp,-208
   104a8:	e586                	sd	ra,200(sp)
   104aa:	e1a2                	sd	s0,192(sp)
   104ac:	0980                	addi	s0,sp,208
   104ae:	000247b7          	lui	a5,0x24
   104b2:	81078513          	addi	a0,a5,-2032 # 23810 <__clzdi2+0xd4>
   104b6:	4a9010ef          	jal	ra,1215e <puts>
   104ba:	000247b7          	lui	a5,0x24
   104be:	83078593          	addi	a1,a5,-2000 # 23830 <__clzdi2+0xf4>
   104c2:	000247b7          	lui	a5,0x24
   104c6:	83878513          	addi	a0,a5,-1992 # 23838 <__clzdi2+0xfc>
   104ca:	0b7000ef          	jal	ra,10d80 <fopen>
   104ce:	fca43023          	sd	a0,-64(s0)
   104d2:	c83ff0ef          	jal	ra,10154 <read_data>
   104d6:	f17ff0ef          	jal	ra,103ec <read_data_test>
   104da:	f3040793          	addi	a5,s0,-208
   104de:	08000713          	li	a4,128
   104e2:	863a                	mv	a2,a4
   104e4:	4581                	li	a1,0
   104e6:	853e                	mv	a0,a5
   104e8:	1e3010ef          	jal	ra,11eca <memset>
   104ec:	fe042623          	sw	zero,-20(s0)
   104f0:	fe042423          	sw	zero,-24(s0)
   104f4:	aa01                	j	10604 <main+0x15e>
   104f6:	fe042223          	sw	zero,-28(s0)
   104fa:	a8dd                	j	105f0 <main+0x14a>
   104fc:	fe042023          	sw	zero,-32(s0)
   10500:	a8d1                	j	105d4 <main+0x12e>
   10502:	fc042e23          	sw	zero,-36(s0)
   10506:	a861                	j	1059e <main+0xf8>
   10508:	fe042783          	lw	a5,-32(s0)
   1050c:	0067979b          	slliw	a5,a5,0x6
   10510:	2781                	sext.w	a5,a5
   10512:	873e                	mv	a4,a5
   10514:	000267b7          	lui	a5,0x26
   10518:	2b878793          	addi	a5,a5,696 # 262b8 <dat>
   1051c:	97ba                	add	a5,a5,a4
   1051e:	faf43c23          	sd	a5,-72(s0)
   10522:	fe842783          	lw	a5,-24(s0)
   10526:	0067979b          	slliw	a5,a5,0x6
   1052a:	2781                	sext.w	a5,a5
   1052c:	873e                	mv	a4,a5
   1052e:	000667b7          	lui	a5,0x66
   10532:	2b878793          	addi	a5,a5,696 # 662b8 <wt>
   10536:	97ba                	add	a5,a5,a4
   10538:	faf43823          	sd	a5,-80(s0)
   1053c:	f3040693          	addi	a3,s0,-208
   10540:	000257b7          	lui	a5,0x25
   10544:	02078713          	addi	a4,a5,32 # 25020 <param>
   10548:	fb043603          	ld	a2,-80(s0)
   1054c:	fb843583          	ld	a1,-72(s0)
   10550:	04000513          	li	a0,64
   10554:	190000ef          	jal	ra,106e4 <vec_mul_64e>
   10558:	fc042c23          	sw	zero,-40(s0)
   1055c:	a025                	j	10584 <main+0xde>
   1055e:	fd842783          	lw	a5,-40(s0)
   10562:	0786                	slli	a5,a5,0x1
   10564:	ff040713          	addi	a4,s0,-16
   10568:	97ba                	add	a5,a5,a4
   1056a:	f4079783          	lh	a5,-192(a5)
   1056e:	2781                	sext.w	a5,a5
   10570:	fec42703          	lw	a4,-20(s0)
   10574:	9fb9                	addw	a5,a5,a4
   10576:	fef42623          	sw	a5,-20(s0)
   1057a:	fd842783          	lw	a5,-40(s0)
   1057e:	2785                	addiw	a5,a5,1
   10580:	fcf42c23          	sw	a5,-40(s0)
   10584:	fd842783          	lw	a5,-40(s0)
   10588:	0007871b          	sext.w	a4,a5
   1058c:	03f00793          	li	a5,63
   10590:	fce7d7e3          	bge	a5,a4,1055e <main+0xb8>
   10594:	fdc42783          	lw	a5,-36(s0)
   10598:	2785                	addiw	a5,a5,1
   1059a:	fcf42e23          	sw	a5,-36(s0)
   1059e:	fdc42783          	lw	a5,-36(s0)
   105a2:	2781                	sext.w	a5,a5
   105a4:	f6f052e3          	blez	a5,10508 <main+0x62>
   105a8:	0006a7b7          	lui	a5,0x6a
   105ac:	4b878713          	addi	a4,a5,1208 # 6a4b8 <output>
   105b0:	fe042783          	lw	a5,-32(s0)
   105b4:	fe842683          	lw	a3,-24(s0)
   105b8:	06b2                	slli	a3,a3,0xc
   105ba:	97b6                	add	a5,a5,a3
   105bc:	078a                	slli	a5,a5,0x2
   105be:	97ba                	add	a5,a5,a4
   105c0:	fec42703          	lw	a4,-20(s0)
   105c4:	c398                	sw	a4,0(a5)
   105c6:	fe042623          	sw	zero,-20(s0)
   105ca:	fe042783          	lw	a5,-32(s0)
   105ce:	2785                	addiw	a5,a5,1
   105d0:	fef42023          	sw	a5,-32(s0)
   105d4:	fe042783          	lw	a5,-32(s0)
   105d8:	0007871b          	sext.w	a4,a5
   105dc:	6785                	lui	a5,0x1
   105de:	c3f78793          	addi	a5,a5,-961 # c3f <register_fini-0xf471>
   105e2:	f2e7d0e3          	bge	a5,a4,10502 <main+0x5c>
   105e6:	fe442783          	lw	a5,-28(s0)
   105ea:	2785                	addiw	a5,a5,1
   105ec:	fef42223          	sw	a5,-28(s0)
   105f0:	fe442783          	lw	a5,-28(s0)
   105f4:	2781                	sext.w	a5,a5
   105f6:	f0f053e3          	blez	a5,104fc <main+0x56>
   105fa:	fe842783          	lw	a5,-24(s0)
   105fe:	2785                	addiw	a5,a5,1
   10600:	fef42423          	sw	a5,-24(s0)
   10604:	fe842783          	lw	a5,-24(s0)
   10608:	0007871b          	sext.w	a4,a5
   1060c:	0ff00793          	li	a5,255
   10610:	eee7d3e3          	bge	a5,a4,104f6 <main+0x50>
   10614:	000247b7          	lui	a5,0x24
   10618:	85078513          	addi	a0,a5,-1968 # 23850 <__clzdi2+0x114>
   1061c:	343010ef          	jal	ra,1215e <puts>
   10620:	fc042a23          	sw	zero,-44(s0)
   10624:	a849                	j	106b6 <main+0x210>
   10626:	fc042823          	sw	zero,-48(s0)
   1062a:	a885                	j	1069a <main+0x1f4>
   1062c:	fc042623          	sw	zero,-52(s0)
   10630:	a0a1                	j	10678 <main+0x1d2>
   10632:	fd442783          	lw	a5,-44(s0)
   10636:	0057979b          	slliw	a5,a5,0x5
   1063a:	2781                	sext.w	a5,a5
   1063c:	fcc42703          	lw	a4,-52(s0)
   10640:	9fb9                	addw	a5,a5,a4
   10642:	0007869b          	sext.w	a3,a5
   10646:	0006a7b7          	lui	a5,0x6a
   1064a:	4b878713          	addi	a4,a5,1208 # 6a4b8 <output>
   1064e:	fd042783          	lw	a5,-48(s0)
   10652:	06b2                	slli	a3,a3,0xc
   10654:	97b6                	add	a5,a5,a3
   10656:	078a                	slli	a5,a5,0x2
   10658:	97ba                	add	a5,a5,a4
   1065a:	439c                	lw	a5,0(a5)
   1065c:	863e                	mv	a2,a5
   1065e:	000247b7          	lui	a5,0x24
   10662:	88878593          	addi	a1,a5,-1912 # 23888 <__clzdi2+0x14c>
   10666:	fc043503          	ld	a0,-64(s0)
   1066a:	742000ef          	jal	ra,10dac <fprintf>
   1066e:	fcc42783          	lw	a5,-52(s0)
   10672:	2785                	addiw	a5,a5,1
   10674:	fcf42623          	sw	a5,-52(s0)
   10678:	fcc42783          	lw	a5,-52(s0)
   1067c:	0007871b          	sext.w	a4,a5
   10680:	47fd                	li	a5,31
   10682:	fae7d8e3          	bge	a5,a4,10632 <main+0x18c>
   10686:	fc043583          	ld	a1,-64(s0)
   1068a:	4529                	li	a0,10
   1068c:	77e000ef          	jal	ra,10e0a <fputc>
   10690:	fd042783          	lw	a5,-48(s0)
   10694:	2785                	addiw	a5,a5,1
   10696:	fcf42823          	sw	a5,-48(s0)
   1069a:	fd042783          	lw	a5,-48(s0)
   1069e:	0007871b          	sext.w	a4,a5
   106a2:	6785                	lui	a5,0x1
   106a4:	c3f78793          	addi	a5,a5,-961 # c3f <register_fini-0xf471>
   106a8:	f8e7d2e3          	bge	a5,a4,1062c <main+0x186>
   106ac:	fd442783          	lw	a5,-44(s0)
   106b0:	2785                	addiw	a5,a5,1
   106b2:	fcf42a23          	sw	a5,-44(s0)
   106b6:	fd442783          	lw	a5,-44(s0)
   106ba:	0007871b          	sext.w	a4,a5
   106be:	479d                	li	a5,7
   106c0:	f6e7d3e3          	bge	a5,a4,10626 <main+0x180>
   106c4:	000247b7          	lui	a5,0x24
   106c8:	89078513          	addi	a0,a5,-1904 # 23890 <__clzdi2+0x154>
   106cc:	293010ef          	jal	ra,1215e <puts>
   106d0:	fc043503          	ld	a0,-64(s0)
   106d4:	116000ef          	jal	ra,107ea <fclose>
   106d8:	4781                	li	a5,0
   106da:	853e                	mv	a0,a5
   106dc:	60ae                	ld	ra,200(sp)
   106de:	640e                	ld	s0,192(sp)
   106e0:	6169                	addi	sp,sp,208
   106e2:	8082                	ret

00000000000106e4 <vec_mul_64e>:
   106e4:	002572d7          	vsetvli	t0,a0,e8,m4,tu,mu,d1
   106e8:	02058407          	vle8.v	v8,(a1)
   106ec:	9596                	add	a1,a1,t0
   106ee:	02060807          	vle8.v	v16,(a2)
   106f2:	9616                	add	a2,a2,t0
   106f4:	ee882c57          	vwmul.vv	v24,v8,v16
   106f8:	40550533          	sub	a0,a0,t0
   106fc:	00b2f2d7          	vsetvli	t0,t0,e16,m8,tu,mu,d1
   10700:	0206dc27          	vse16.v	v24,(a3)
   10704:	0286                	slli	t0,t0,0x1
   10706:	9696                	add	a3,a3,t0
   10708:	fd71                	bnez	a0,106e4 <vec_mul_64e>
   1070a:	8082                	ret
	...

000000000001070e <exit>:
   1070e:	1141                	addi	sp,sp,-16
   10710:	4581                	li	a1,0
   10712:	e022                	sd	s0,0(sp)
   10714:	e406                	sd	ra,8(sp)
   10716:	842a                	mv	s0,a0
   10718:	0ce060ef          	jal	ra,167e6 <__call_exitprocs>
   1071c:	8a01b503          	ld	a0,-1888(gp) # 26220 <_global_impure_ptr>
   10720:	6d3c                	ld	a5,88(a0)
   10722:	c391                	beqz	a5,10726 <exit+0x18>
   10724:	9782                	jalr	a5
   10726:	8522                	mv	a0,s0
   10728:	1f5110ef          	jal	ra,2211c <_exit>

000000000001072c <_fclose_r.part.0>:
   1072c:	1101                	addi	sp,sp,-32
   1072e:	e822                	sd	s0,16(sp)
   10730:	e426                	sd	s1,8(sp)
   10732:	e04a                	sd	s2,0(sp)
   10734:	842e                	mv	s0,a1
   10736:	ec06                	sd	ra,24(sp)
   10738:	84aa                	mv	s1,a0
   1073a:	0f2000ef          	jal	ra,1082c <__sflush_r>
   1073e:	683c                	ld	a5,80(s0)
   10740:	892a                	mv	s2,a0
   10742:	c791                	beqz	a5,1074e <_fclose_r.part.0+0x22>
   10744:	780c                	ld	a1,48(s0)
   10746:	8526                	mv	a0,s1
   10748:	9782                	jalr	a5
   1074a:	04054663          	bltz	a0,10796 <_fclose_r.part.0+0x6a>
   1074e:	01045783          	lhu	a5,16(s0)
   10752:	0807f793          	andi	a5,a5,128
   10756:	e7b1                	bnez	a5,107a2 <_fclose_r.part.0+0x76>
   10758:	6c2c                	ld	a1,88(s0)
   1075a:	c991                	beqz	a1,1076e <_fclose_r.part.0+0x42>
   1075c:	07440793          	addi	a5,s0,116
   10760:	00f58563          	beq	a1,a5,1076a <_fclose_r.part.0+0x3e>
   10764:	8526                	mv	a0,s1
   10766:	7ba000ef          	jal	ra,10f20 <_free_r>
   1076a:	04043c23          	sd	zero,88(s0)
   1076e:	7c2c                	ld	a1,120(s0)
   10770:	c591                	beqz	a1,1077c <_fclose_r.part.0+0x50>
   10772:	8526                	mv	a0,s1
   10774:	7ac000ef          	jal	ra,10f20 <_free_r>
   10778:	06043c23          	sd	zero,120(s0)
   1077c:	52c000ef          	jal	ra,10ca8 <__sfp_lock_acquire>
   10780:	00041823          	sh	zero,16(s0)
   10784:	526000ef          	jal	ra,10caa <__sfp_lock_release>
   10788:	60e2                	ld	ra,24(sp)
   1078a:	6442                	ld	s0,16(sp)
   1078c:	64a2                	ld	s1,8(sp)
   1078e:	854a                	mv	a0,s2
   10790:	6902                	ld	s2,0(sp)
   10792:	6105                	addi	sp,sp,32
   10794:	8082                	ret
   10796:	01045783          	lhu	a5,16(s0)
   1079a:	597d                	li	s2,-1
   1079c:	0807f793          	andi	a5,a5,128
   107a0:	dfc5                	beqz	a5,10758 <_fclose_r.part.0+0x2c>
   107a2:	6c0c                	ld	a1,24(s0)
   107a4:	8526                	mv	a0,s1
   107a6:	77a000ef          	jal	ra,10f20 <_free_r>
   107aa:	b77d                	j	10758 <_fclose_r.part.0+0x2c>

00000000000107ac <_fclose_r>:
   107ac:	cd8d                	beqz	a1,107e6 <_fclose_r+0x3a>
   107ae:	1101                	addi	sp,sp,-32
   107b0:	e822                	sd	s0,16(sp)
   107b2:	ec06                	sd	ra,24(sp)
   107b4:	842a                	mv	s0,a0
   107b6:	c119                	beqz	a0,107bc <_fclose_r+0x10>
   107b8:	493c                	lw	a5,80(a0)
   107ba:	cf91                	beqz	a5,107d6 <_fclose_r+0x2a>
   107bc:	01059783          	lh	a5,16(a1)
   107c0:	e791                	bnez	a5,107cc <_fclose_r+0x20>
   107c2:	60e2                	ld	ra,24(sp)
   107c4:	6442                	ld	s0,16(sp)
   107c6:	4501                	li	a0,0
   107c8:	6105                	addi	sp,sp,32
   107ca:	8082                	ret
   107cc:	8522                	mv	a0,s0
   107ce:	6442                	ld	s0,16(sp)
   107d0:	60e2                	ld	ra,24(sp)
   107d2:	6105                	addi	sp,sp,32
   107d4:	bfa1                	j	1072c <_fclose_r.part.0>
   107d6:	e42e                	sd	a1,8(sp)
   107d8:	4c8000ef          	jal	ra,10ca0 <__sinit>
   107dc:	65a2                	ld	a1,8(sp)
   107de:	01059783          	lh	a5,16(a1)
   107e2:	d3e5                	beqz	a5,107c2 <_fclose_r+0x16>
   107e4:	b7e5                	j	107cc <_fclose_r+0x20>
   107e6:	4501                	li	a0,0
   107e8:	8082                	ret

00000000000107ea <fclose>:
   107ea:	cd1d                	beqz	a0,10828 <fclose+0x3e>
   107ec:	1101                	addi	sp,sp,-32
   107ee:	e822                	sd	s0,16(sp)
   107f0:	842a                	mv	s0,a0
   107f2:	8b01b503          	ld	a0,-1872(gp) # 26230 <_impure_ptr>
   107f6:	ec06                	sd	ra,24(sp)
   107f8:	c119                	beqz	a0,107fe <fclose+0x14>
   107fa:	493c                	lw	a5,80(a0)
   107fc:	cf91                	beqz	a5,10818 <fclose+0x2e>
   107fe:	01041783          	lh	a5,16(s0)
   10802:	e791                	bnez	a5,1080e <fclose+0x24>
   10804:	60e2                	ld	ra,24(sp)
   10806:	6442                	ld	s0,16(sp)
   10808:	4501                	li	a0,0
   1080a:	6105                	addi	sp,sp,32
   1080c:	8082                	ret
   1080e:	85a2                	mv	a1,s0
   10810:	6442                	ld	s0,16(sp)
   10812:	60e2                	ld	ra,24(sp)
   10814:	6105                	addi	sp,sp,32
   10816:	bf19                	j	1072c <_fclose_r.part.0>
   10818:	e42a                	sd	a0,8(sp)
   1081a:	486000ef          	jal	ra,10ca0 <__sinit>
   1081e:	01041783          	lh	a5,16(s0)
   10822:	6522                	ld	a0,8(sp)
   10824:	d3e5                	beqz	a5,10804 <fclose+0x1a>
   10826:	b7e5                	j	1080e <fclose+0x24>
   10828:	4501                	li	a0,0
   1082a:	8082                	ret

000000000001082c <__sflush_r>:
   1082c:	01059783          	lh	a5,16(a1)
   10830:	7179                	addi	sp,sp,-48
   10832:	f022                	sd	s0,32(sp)
   10834:	e44e                	sd	s3,8(sp)
   10836:	f406                	sd	ra,40(sp)
   10838:	ec26                	sd	s1,24(sp)
   1083a:	e84a                	sd	s2,16(sp)
   1083c:	0087f693          	andi	a3,a5,8
   10840:	842e                	mv	s0,a1
   10842:	89aa                	mv	s3,a0
   10844:	ead5                	bnez	a3,108f8 <__sflush_r+0xcc>
   10846:	6705                	lui	a4,0x1
   10848:	80070713          	addi	a4,a4,-2048 # 800 <register_fini-0xf8b0>
   1084c:	4594                	lw	a3,8(a1)
   1084e:	8fd9                	or	a5,a5,a4
   10850:	00f59823          	sh	a5,16(a1)
   10854:	10d05063          	blez	a3,10954 <__sflush_r+0x128>
   10858:	6438                	ld	a4,72(s0)
   1085a:	c759                	beqz	a4,108e8 <__sflush_r+0xbc>
   1085c:	17c2                	slli	a5,a5,0x30
   1085e:	93c1                	srli	a5,a5,0x30
   10860:	6685                	lui	a3,0x1
   10862:	0009a483          	lw	s1,0(s3)
   10866:	8efd                	and	a3,a3,a5
   10868:	0009a023          	sw	zero,0(s3)
   1086c:	780c                	ld	a1,48(s0)
   1086e:	e6fd                	bnez	a3,1095c <__sflush_r+0x130>
   10870:	4601                	li	a2,0
   10872:	4685                	li	a3,1
   10874:	854e                	mv	a0,s3
   10876:	9702                	jalr	a4
   10878:	57fd                	li	a5,-1
   1087a:	862a                	mv	a2,a0
   1087c:	10f50763          	beq	a0,a5,1098a <__sflush_r+0x15e>
   10880:	01045783          	lhu	a5,16(s0)
   10884:	6438                	ld	a4,72(s0)
   10886:	780c                	ld	a1,48(s0)
   10888:	8b91                	andi	a5,a5,4
   1088a:	c799                	beqz	a5,10898 <__sflush_r+0x6c>
   1088c:	4414                	lw	a3,8(s0)
   1088e:	6c3c                	ld	a5,88(s0)
   10890:	8e15                	sub	a2,a2,a3
   10892:	c399                	beqz	a5,10898 <__sflush_r+0x6c>
   10894:	583c                	lw	a5,112(s0)
   10896:	8e1d                	sub	a2,a2,a5
   10898:	4681                	li	a3,0
   1089a:	854e                	mv	a0,s3
   1089c:	9702                	jalr	a4
   1089e:	57fd                	li	a5,-1
   108a0:	0cf51063          	bne	a0,a5,10960 <__sflush_r+0x134>
   108a4:	0009a703          	lw	a4,0(s3)
   108a8:	01041783          	lh	a5,16(s0)
   108ac:	cf6d                	beqz	a4,109a6 <__sflush_r+0x17a>
   108ae:	46f5                	li	a3,29
   108b0:	00d70563          	beq	a4,a3,108ba <__sflush_r+0x8e>
   108b4:	46d9                	li	a3,22
   108b6:	0ed71e63          	bne	a4,a3,109b2 <__sflush_r+0x186>
   108ba:	6c14                	ld	a3,24(s0)
   108bc:	777d                	lui	a4,0xfffff
   108be:	7ff70713          	addi	a4,a4,2047 # fffffffffffff7ff <__BSS_END__+0xffffffffffb9531f>
   108c2:	8ff9                	and	a5,a5,a4
   108c4:	00f41823          	sh	a5,16(s0)
   108c8:	00042423          	sw	zero,8(s0)
   108cc:	e014                	sd	a3,0(s0)
   108ce:	6c2c                	ld	a1,88(s0)
   108d0:	0099a023          	sw	s1,0(s3)
   108d4:	c991                	beqz	a1,108e8 <__sflush_r+0xbc>
   108d6:	07440793          	addi	a5,s0,116
   108da:	00f58563          	beq	a1,a5,108e4 <__sflush_r+0xb8>
   108de:	854e                	mv	a0,s3
   108e0:	640000ef          	jal	ra,10f20 <_free_r>
   108e4:	04043c23          	sd	zero,88(s0)
   108e8:	4501                	li	a0,0
   108ea:	70a2                	ld	ra,40(sp)
   108ec:	7402                	ld	s0,32(sp)
   108ee:	64e2                	ld	s1,24(sp)
   108f0:	6942                	ld	s2,16(sp)
   108f2:	69a2                	ld	s3,8(sp)
   108f4:	6145                	addi	sp,sp,48
   108f6:	8082                	ret
   108f8:	0185b903          	ld	s2,24(a1)
   108fc:	fe0906e3          	beqz	s2,108e8 <__sflush_r+0xbc>
   10900:	6184                	ld	s1,0(a1)
   10902:	03079713          	slli	a4,a5,0x30
   10906:	9341                	srli	a4,a4,0x30
   10908:	8b0d                	andi	a4,a4,3
   1090a:	0125b023          	sd	s2,0(a1)
   1090e:	412484bb          	subw	s1,s1,s2
   10912:	4781                	li	a5,0
   10914:	e311                	bnez	a4,10918 <__sflush_r+0xec>
   10916:	519c                	lw	a5,32(a1)
   10918:	c45c                	sw	a5,12(s0)
   1091a:	00904663          	bgtz	s1,10926 <__sflush_r+0xfa>
   1091e:	b7e9                	j	108e8 <__sflush_r+0xbc>
   10920:	992a                	add	s2,s2,a0
   10922:	fc9053e3          	blez	s1,108e8 <__sflush_r+0xbc>
   10926:	603c                	ld	a5,64(s0)
   10928:	780c                	ld	a1,48(s0)
   1092a:	86a6                	mv	a3,s1
   1092c:	864a                	mv	a2,s2
   1092e:	854e                	mv	a0,s3
   10930:	9782                	jalr	a5
   10932:	9c89                	subw	s1,s1,a0
   10934:	fea046e3          	bgtz	a0,10920 <__sflush_r+0xf4>
   10938:	01045783          	lhu	a5,16(s0)
   1093c:	70a2                	ld	ra,40(sp)
   1093e:	64e2                	ld	s1,24(sp)
   10940:	0407e793          	ori	a5,a5,64
   10944:	00f41823          	sh	a5,16(s0)
   10948:	7402                	ld	s0,32(sp)
   1094a:	6942                	ld	s2,16(sp)
   1094c:	69a2                	ld	s3,8(sp)
   1094e:	557d                	li	a0,-1
   10950:	6145                	addi	sp,sp,48
   10952:	8082                	ret
   10954:	59b8                	lw	a4,112(a1)
   10956:	f0e041e3          	bgtz	a4,10858 <__sflush_r+0x2c>
   1095a:	b779                	j	108e8 <__sflush_r+0xbc>
   1095c:	6850                	ld	a2,144(s0)
   1095e:	b72d                	j	10888 <__sflush_r+0x5c>
   10960:	01045783          	lhu	a5,16(s0)
   10964:	777d                	lui	a4,0xfffff
   10966:	7ff70713          	addi	a4,a4,2047 # fffffffffffff7ff <__BSS_END__+0xffffffffffb9531f>
   1096a:	8ff9                	and	a5,a5,a4
   1096c:	6c14                	ld	a3,24(s0)
   1096e:	0107979b          	slliw	a5,a5,0x10
   10972:	4107d79b          	sraiw	a5,a5,0x10
   10976:	6705                	lui	a4,0x1
   10978:	00f41823          	sh	a5,16(s0)
   1097c:	00042423          	sw	zero,8(s0)
   10980:	e014                	sd	a3,0(s0)
   10982:	8ff9                	and	a5,a5,a4
   10984:	d7a9                	beqz	a5,108ce <__sflush_r+0xa2>
   10986:	e848                	sd	a0,144(s0)
   10988:	b799                	j	108ce <__sflush_r+0xa2>
   1098a:	0009a783          	lw	a5,0(s3)
   1098e:	ee0789e3          	beqz	a5,10880 <__sflush_r+0x54>
   10992:	4775                	li	a4,29
   10994:	00e78563          	beq	a5,a4,1099e <__sflush_r+0x172>
   10998:	4759                	li	a4,22
   1099a:	f8e79fe3          	bne	a5,a4,10938 <__sflush_r+0x10c>
   1099e:	0099a023          	sw	s1,0(s3)
   109a2:	4501                	li	a0,0
   109a4:	b799                	j	108ea <__sflush_r+0xbe>
   109a6:	777d                	lui	a4,0xfffff
   109a8:	7ff70713          	addi	a4,a4,2047 # fffffffffffff7ff <__BSS_END__+0xffffffffffb9531f>
   109ac:	6c14                	ld	a3,24(s0)
   109ae:	8ff9                	and	a5,a5,a4
   109b0:	b7d9                	j	10976 <__sflush_r+0x14a>
   109b2:	0407e793          	ori	a5,a5,64
   109b6:	00f41823          	sh	a5,16(s0)
   109ba:	557d                	li	a0,-1
   109bc:	b73d                	j	108ea <__sflush_r+0xbe>

00000000000109be <_fflush_r>:
   109be:	1101                	addi	sp,sp,-32
   109c0:	e822                	sd	s0,16(sp)
   109c2:	ec06                	sd	ra,24(sp)
   109c4:	842a                	mv	s0,a0
   109c6:	c119                	beqz	a0,109cc <_fflush_r+0xe>
   109c8:	493c                	lw	a5,80(a0)
   109ca:	cb89                	beqz	a5,109dc <_fflush_r+0x1e>
   109cc:	01059783          	lh	a5,16(a1)
   109d0:	ef89                	bnez	a5,109ea <_fflush_r+0x2c>
   109d2:	60e2                	ld	ra,24(sp)
   109d4:	6442                	ld	s0,16(sp)
   109d6:	4501                	li	a0,0
   109d8:	6105                	addi	sp,sp,32
   109da:	8082                	ret
   109dc:	e42e                	sd	a1,8(sp)
   109de:	2c2000ef          	jal	ra,10ca0 <__sinit>
   109e2:	65a2                	ld	a1,8(sp)
   109e4:	01059783          	lh	a5,16(a1)
   109e8:	d7ed                	beqz	a5,109d2 <_fflush_r+0x14>
   109ea:	8522                	mv	a0,s0
   109ec:	6442                	ld	s0,16(sp)
   109ee:	60e2                	ld	ra,24(sp)
   109f0:	6105                	addi	sp,sp,32
   109f2:	bd2d                	j	1082c <__sflush_r>

00000000000109f4 <fflush>:
   109f4:	cd1d                	beqz	a0,10a32 <fflush+0x3e>
   109f6:	1101                	addi	sp,sp,-32
   109f8:	e822                	sd	s0,16(sp)
   109fa:	842a                	mv	s0,a0
   109fc:	8b01b503          	ld	a0,-1872(gp) # 26230 <_impure_ptr>
   10a00:	ec06                	sd	ra,24(sp)
   10a02:	c119                	beqz	a0,10a08 <fflush+0x14>
   10a04:	493c                	lw	a5,80(a0)
   10a06:	cf91                	beqz	a5,10a22 <fflush+0x2e>
   10a08:	01041783          	lh	a5,16(s0)
   10a0c:	e791                	bnez	a5,10a18 <fflush+0x24>
   10a0e:	60e2                	ld	ra,24(sp)
   10a10:	6442                	ld	s0,16(sp)
   10a12:	4501                	li	a0,0
   10a14:	6105                	addi	sp,sp,32
   10a16:	8082                	ret
   10a18:	85a2                	mv	a1,s0
   10a1a:	6442                	ld	s0,16(sp)
   10a1c:	60e2                	ld	ra,24(sp)
   10a1e:	6105                	addi	sp,sp,32
   10a20:	b531                	j	1082c <__sflush_r>
   10a22:	e42a                	sd	a0,8(sp)
   10a24:	27c000ef          	jal	ra,10ca0 <__sinit>
   10a28:	01041783          	lh	a5,16(s0)
   10a2c:	6522                	ld	a0,8(sp)
   10a2e:	d3e5                	beqz	a5,10a0e <fflush+0x1a>
   10a30:	b7e5                	j	10a18 <fflush+0x24>
   10a32:	8a01b503          	ld	a0,-1888(gp) # 26220 <_global_impure_ptr>
   10a36:	65c5                	lui	a1,0x11
   10a38:	9be58593          	addi	a1,a1,-1602 # 109be <_fflush_r>
   10a3c:	3d30006f          	j	1160e <_fwalk_reent>

0000000000010a40 <__fp_lock>:
   10a40:	4501                	li	a0,0
   10a42:	8082                	ret

0000000000010a44 <_cleanup_r>:
   10a44:	65c1                	lui	a1,0x10
   10a46:	7ac58593          	addi	a1,a1,1964 # 107ac <_fclose_r>
   10a4a:	3c50006f          	j	1160e <_fwalk_reent>

0000000000010a4e <__fp_unlock>:
   10a4e:	4501                	li	a0,0
   10a50:	8082                	ret

0000000000010a52 <__sinit.part.0>:
   10a52:	7139                	addi	sp,sp,-64
   10a54:	67c5                	lui	a5,0x11
   10a56:	fc06                	sd	ra,56(sp)
   10a58:	f822                	sd	s0,48(sp)
   10a5a:	f426                	sd	s1,40(sp)
   10a5c:	f04a                	sd	s2,32(sp)
   10a5e:	ec4e                	sd	s3,24(sp)
   10a60:	e852                	sd	s4,16(sp)
   10a62:	e456                	sd	s5,8(sp)
   10a64:	e05a                	sd	s6,0(sp)
   10a66:	6500                	ld	s0,8(a0)
   10a68:	a4478793          	addi	a5,a5,-1468 # 10a44 <_cleanup_r>
   10a6c:	ed3c                	sd	a5,88(a0)
   10a6e:	53850713          	addi	a4,a0,1336 # 25538 <impure_data+0x4d0>
   10a72:	478d                	li	a5,3
   10a74:	52e53823          	sd	a4,1328(a0)
   10a78:	52f52423          	sw	a5,1320(a0)
   10a7c:	52053023          	sd	zero,1312(a0)
   10a80:	4791                	li	a5,4
   10a82:	892a                	mv	s2,a0
   10a84:	c81c                	sw	a5,16(s0)
   10a86:	4621                	li	a2,8
   10a88:	4581                	li	a1,0
   10a8a:	0a042623          	sw	zero,172(s0)
   10a8e:	00043023          	sd	zero,0(s0)
   10a92:	00043423          	sd	zero,8(s0)
   10a96:	00043c23          	sd	zero,24(s0)
   10a9a:	02042023          	sw	zero,32(s0)
   10a9e:	02042423          	sw	zero,40(s0)
   10aa2:	0a440513          	addi	a0,s0,164
   10aa6:	424010ef          	jal	ra,11eca <memset>
   10aaa:	6b49                	lui	s6,0x12
   10aac:	01093483          	ld	s1,16(s2)
   10ab0:	6ac9                	lui	s5,0x12
   10ab2:	6a49                	lui	s4,0x12
   10ab4:	69c9                	lui	s3,0x12
   10ab6:	428b0b13          	addi	s6,s6,1064 # 12428 <__sread>
   10aba:	464a8a93          	addi	s5,s5,1124 # 12464 <__swrite>
   10abe:	4b8a0a13          	addi	s4,s4,1208 # 124b8 <__sseek>
   10ac2:	4fa98993          	addi	s3,s3,1274 # 124fa <__sclose>
   10ac6:	67c1                	lui	a5,0x10
   10ac8:	03643c23          	sd	s6,56(s0)
   10acc:	05543023          	sd	s5,64(s0)
   10ad0:	05443423          	sd	s4,72(s0)
   10ad4:	05343823          	sd	s3,80(s0)
   10ad8:	f800                	sd	s0,48(s0)
   10ada:	07a5                	addi	a5,a5,9
   10adc:	c89c                	sw	a5,16(s1)
   10ade:	4621                	li	a2,8
   10ae0:	4581                	li	a1,0
   10ae2:	0a04a623          	sw	zero,172(s1)
   10ae6:	0004b023          	sd	zero,0(s1)
   10aea:	0004b423          	sd	zero,8(s1)
   10aee:	0004bc23          	sd	zero,24(s1)
   10af2:	0204a023          	sw	zero,32(s1)
   10af6:	0204a423          	sw	zero,40(s1)
   10afa:	0a448513          	addi	a0,s1,164
   10afe:	3cc010ef          	jal	ra,11eca <memset>
   10b02:	01893403          	ld	s0,24(s2)
   10b06:	000207b7          	lui	a5,0x20
   10b0a:	0364bc23          	sd	s6,56(s1)
   10b0e:	0554b023          	sd	s5,64(s1)
   10b12:	0544b423          	sd	s4,72(s1)
   10b16:	0534b823          	sd	s3,80(s1)
   10b1a:	f884                	sd	s1,48(s1)
   10b1c:	07c9                	addi	a5,a5,18
   10b1e:	c81c                	sw	a5,16(s0)
   10b20:	0a042623          	sw	zero,172(s0)
   10b24:	00043023          	sd	zero,0(s0)
   10b28:	00043423          	sd	zero,8(s0)
   10b2c:	00043c23          	sd	zero,24(s0)
   10b30:	02042023          	sw	zero,32(s0)
   10b34:	02042423          	sw	zero,40(s0)
   10b38:	0a440513          	addi	a0,s0,164
   10b3c:	4621                	li	a2,8
   10b3e:	4581                	li	a1,0
   10b40:	38a010ef          	jal	ra,11eca <memset>
   10b44:	70e2                	ld	ra,56(sp)
   10b46:	03643c23          	sd	s6,56(s0)
   10b4a:	05543023          	sd	s5,64(s0)
   10b4e:	05443423          	sd	s4,72(s0)
   10b52:	05343823          	sd	s3,80(s0)
   10b56:	f800                	sd	s0,48(s0)
   10b58:	7442                	ld	s0,48(sp)
   10b5a:	4785                	li	a5,1
   10b5c:	04f92823          	sw	a5,80(s2)
   10b60:	74a2                	ld	s1,40(sp)
   10b62:	7902                	ld	s2,32(sp)
   10b64:	69e2                	ld	s3,24(sp)
   10b66:	6a42                	ld	s4,16(sp)
   10b68:	6aa2                	ld	s5,8(sp)
   10b6a:	6b02                	ld	s6,0(sp)
   10b6c:	6121                	addi	sp,sp,64
   10b6e:	8082                	ret

0000000000010b70 <__sfmoreglue>:
   10b70:	1101                	addi	sp,sp,-32
   10b72:	e426                	sd	s1,8(sp)
   10b74:	0b000613          	li	a2,176
   10b78:	fff5849b          	addiw	s1,a1,-1
   10b7c:	02c484b3          	mul	s1,s1,a2
   10b80:	e04a                	sd	s2,0(sp)
   10b82:	892e                	mv	s2,a1
   10b84:	e822                	sd	s0,16(sp)
   10b86:	ec06                	sd	ra,24(sp)
   10b88:	0c848593          	addi	a1,s1,200
   10b8c:	515000ef          	jal	ra,118a0 <_malloc_r>
   10b90:	842a                	mv	s0,a0
   10b92:	cd01                	beqz	a0,10baa <__sfmoreglue+0x3a>
   10b94:	0561                	addi	a0,a0,24
   10b96:	00043023          	sd	zero,0(s0)
   10b9a:	01242423          	sw	s2,8(s0)
   10b9e:	e808                	sd	a0,16(s0)
   10ba0:	0b048613          	addi	a2,s1,176
   10ba4:	4581                	li	a1,0
   10ba6:	324010ef          	jal	ra,11eca <memset>
   10baa:	60e2                	ld	ra,24(sp)
   10bac:	8522                	mv	a0,s0
   10bae:	6442                	ld	s0,16(sp)
   10bb0:	64a2                	ld	s1,8(sp)
   10bb2:	6902                	ld	s2,0(sp)
   10bb4:	6105                	addi	sp,sp,32
   10bb6:	8082                	ret

0000000000010bb8 <__sfp>:
   10bb8:	7179                	addi	sp,sp,-48
   10bba:	ec26                	sd	s1,24(sp)
   10bbc:	8a01b483          	ld	s1,-1888(gp) # 26220 <_global_impure_ptr>
   10bc0:	e84a                	sd	s2,16(sp)
   10bc2:	f406                	sd	ra,40(sp)
   10bc4:	48bc                	lw	a5,80(s1)
   10bc6:	f022                	sd	s0,32(sp)
   10bc8:	e44e                	sd	s3,8(sp)
   10bca:	e052                	sd	s4,0(sp)
   10bcc:	892a                	mv	s2,a0
   10bce:	c3d9                	beqz	a5,10c54 <__sfp+0x9c>
   10bd0:	52048493          	addi	s1,s1,1312
   10bd4:	0b000993          	li	s3,176
   10bd8:	4a11                	li	s4,4
   10bda:	449c                	lw	a5,8(s1)
   10bdc:	6880                	ld	s0,16(s1)
   10bde:	06f05763          	blez	a5,10c4c <__sfp+0x94>
   10be2:	37fd                	addiw	a5,a5,-1
   10be4:	1782                	slli	a5,a5,0x20
   10be6:	9381                	srli	a5,a5,0x20
   10be8:	0785                	addi	a5,a5,1
   10bea:	033787b3          	mul	a5,a5,s3
   10bee:	97a2                	add	a5,a5,s0
   10bf0:	a029                	j	10bfa <__sfp+0x42>
   10bf2:	0b040413          	addi	s0,s0,176
   10bf6:	04f40b63          	beq	s0,a5,10c4c <__sfp+0x94>
   10bfa:	01041703          	lh	a4,16(s0)
   10bfe:	fb75                	bnez	a4,10bf2 <__sfp+0x3a>
   10c00:	77c1                	lui	a5,0xffff0
   10c02:	0785                	addi	a5,a5,1
   10c04:	0a042623          	sw	zero,172(s0)
   10c08:	00043023          	sd	zero,0(s0)
   10c0c:	00043423          	sd	zero,8(s0)
   10c10:	c81c                	sw	a5,16(s0)
   10c12:	00043c23          	sd	zero,24(s0)
   10c16:	02042023          	sw	zero,32(s0)
   10c1a:	02042423          	sw	zero,40(s0)
   10c1e:	4621                	li	a2,8
   10c20:	4581                	li	a1,0
   10c22:	0a440513          	addi	a0,s0,164
   10c26:	2a4010ef          	jal	ra,11eca <memset>
   10c2a:	04043c23          	sd	zero,88(s0)
   10c2e:	06042023          	sw	zero,96(s0)
   10c32:	06043c23          	sd	zero,120(s0)
   10c36:	08042023          	sw	zero,128(s0)
   10c3a:	70a2                	ld	ra,40(sp)
   10c3c:	8522                	mv	a0,s0
   10c3e:	7402                	ld	s0,32(sp)
   10c40:	64e2                	ld	s1,24(sp)
   10c42:	6942                	ld	s2,16(sp)
   10c44:	69a2                	ld	s3,8(sp)
   10c46:	6a02                	ld	s4,0(sp)
   10c48:	6145                	addi	sp,sp,48
   10c4a:	8082                	ret
   10c4c:	6080                	ld	s0,0(s1)
   10c4e:	c419                	beqz	s0,10c5c <__sfp+0xa4>
   10c50:	84a2                	mv	s1,s0
   10c52:	b761                	j	10bda <__sfp+0x22>
   10c54:	8526                	mv	a0,s1
   10c56:	dfdff0ef          	jal	ra,10a52 <__sinit.part.0>
   10c5a:	bf9d                	j	10bd0 <__sfp+0x18>
   10c5c:	2d800593          	li	a1,728
   10c60:	854a                	mv	a0,s2
   10c62:	43f000ef          	jal	ra,118a0 <_malloc_r>
   10c66:	842a                	mv	s0,a0
   10c68:	cd19                	beqz	a0,10c86 <__sfp+0xce>
   10c6a:	0561                	addi	a0,a0,24
   10c6c:	00043023          	sd	zero,0(s0)
   10c70:	01442423          	sw	s4,8(s0)
   10c74:	e808                	sd	a0,16(s0)
   10c76:	2c000613          	li	a2,704
   10c7a:	4581                	li	a1,0
   10c7c:	24e010ef          	jal	ra,11eca <memset>
   10c80:	e080                	sd	s0,0(s1)
   10c82:	84a2                	mv	s1,s0
   10c84:	bf99                	j	10bda <__sfp+0x22>
   10c86:	0004b023          	sd	zero,0(s1)
   10c8a:	47b1                	li	a5,12
   10c8c:	00f92023          	sw	a5,0(s2)
   10c90:	b76d                	j	10c3a <__sfp+0x82>

0000000000010c92 <_cleanup>:
   10c92:	8a01b503          	ld	a0,-1888(gp) # 26220 <_global_impure_ptr>
   10c96:	65c1                	lui	a1,0x10
   10c98:	7ac58593          	addi	a1,a1,1964 # 107ac <_fclose_r>
   10c9c:	1730006f          	j	1160e <_fwalk_reent>

0000000000010ca0 <__sinit>:
   10ca0:	493c                	lw	a5,80(a0)
   10ca2:	c391                	beqz	a5,10ca6 <__sinit+0x6>
   10ca4:	8082                	ret
   10ca6:	b375                	j	10a52 <__sinit.part.0>

0000000000010ca8 <__sfp_lock_acquire>:
   10ca8:	8082                	ret

0000000000010caa <__sfp_lock_release>:
   10caa:	8082                	ret

0000000000010cac <__sinit_lock_acquire>:
   10cac:	8082                	ret

0000000000010cae <__sinit_lock_release>:
   10cae:	8082                	ret

0000000000010cb0 <__fp_lock_all>:
   10cb0:	8b01b503          	ld	a0,-1872(gp) # 26230 <_impure_ptr>
   10cb4:	65c5                	lui	a1,0x11
   10cb6:	a4058593          	addi	a1,a1,-1472 # 10a40 <__fp_lock>
   10cba:	0d30006f          	j	1158c <_fwalk>

0000000000010cbe <__fp_unlock_all>:
   10cbe:	8b01b503          	ld	a0,-1872(gp) # 26230 <_impure_ptr>
   10cc2:	65c5                	lui	a1,0x11
   10cc4:	a4e58593          	addi	a1,a1,-1458 # 10a4e <__fp_unlock>
   10cc8:	0c50006f          	j	1158c <_fwalk>

0000000000010ccc <_fopen_r>:
   10ccc:	7139                	addi	sp,sp,-64
   10cce:	8732                	mv	a4,a2
   10cd0:	ec4e                	sd	s3,24(sp)
   10cd2:	0070                	addi	a2,sp,12
   10cd4:	89ae                	mv	s3,a1
   10cd6:	85ba                	mv	a1,a4
   10cd8:	f04a                	sd	s2,32(sp)
   10cda:	fc06                	sd	ra,56(sp)
   10cdc:	f822                	sd	s0,48(sp)
   10cde:	f426                	sd	s1,40(sp)
   10ce0:	892a                	mv	s2,a0
   10ce2:	435050ef          	jal	ra,16916 <__sflags>
   10ce6:	c535                	beqz	a0,10d52 <_fopen_r+0x86>
   10ce8:	84aa                	mv	s1,a0
   10cea:	854a                	mv	a0,s2
   10cec:	ecdff0ef          	jal	ra,10bb8 <__sfp>
   10cf0:	842a                	mv	s0,a0
   10cf2:	c125                	beqz	a0,10d52 <_fopen_r+0x86>
   10cf4:	4632                	lw	a2,12(sp)
   10cf6:	1b600693          	li	a3,438
   10cfa:	85ce                	mv	a1,s3
   10cfc:	854a                	mv	a0,s2
   10cfe:	27a010ef          	jal	ra,11f78 <_open_r>
   10d02:	04054263          	bltz	a0,10d46 <_fopen_r+0x7a>
   10d06:	67c9                	lui	a5,0x12
   10d08:	42878793          	addi	a5,a5,1064 # 12428 <__sread>
   10d0c:	fc1c                	sd	a5,56(s0)
   10d0e:	67c9                	lui	a5,0x12
   10d10:	46478793          	addi	a5,a5,1124 # 12464 <__swrite>
   10d14:	e03c                	sd	a5,64(s0)
   10d16:	67c9                	lui	a5,0x12
   10d18:	4b878793          	addi	a5,a5,1208 # 124b8 <__sseek>
   10d1c:	e43c                	sd	a5,72(s0)
   10d1e:	67c9                	lui	a5,0x12
   10d20:	4fa78793          	addi	a5,a5,1274 # 124fa <__sclose>
   10d24:	00941823          	sh	s1,16(s0)
   10d28:	00a41923          	sh	a0,18(s0)
   10d2c:	f800                	sd	s0,48(s0)
   10d2e:	e83c                	sd	a5,80(s0)
   10d30:	1004f493          	andi	s1,s1,256
   10d34:	e885                	bnez	s1,10d64 <_fopen_r+0x98>
   10d36:	70e2                	ld	ra,56(sp)
   10d38:	8522                	mv	a0,s0
   10d3a:	7442                	ld	s0,48(sp)
   10d3c:	74a2                	ld	s1,40(sp)
   10d3e:	7902                	ld	s2,32(sp)
   10d40:	69e2                	ld	s3,24(sp)
   10d42:	6121                	addi	sp,sp,64
   10d44:	8082                	ret
   10d46:	f63ff0ef          	jal	ra,10ca8 <__sfp_lock_acquire>
   10d4a:	00041823          	sh	zero,16(s0)
   10d4e:	f5dff0ef          	jal	ra,10caa <__sfp_lock_release>
   10d52:	4401                	li	s0,0
   10d54:	70e2                	ld	ra,56(sp)
   10d56:	8522                	mv	a0,s0
   10d58:	7442                	ld	s0,48(sp)
   10d5a:	74a2                	ld	s1,40(sp)
   10d5c:	7902                	ld	s2,32(sp)
   10d5e:	69e2                	ld	s3,24(sp)
   10d60:	6121                	addi	sp,sp,64
   10d62:	8082                	ret
   10d64:	85a2                	mv	a1,s0
   10d66:	854a                	mv	a0,s2
   10d68:	4689                	li	a3,2
   10d6a:	4601                	li	a2,0
   10d6c:	452000ef          	jal	ra,111be <_fseek_r>
   10d70:	70e2                	ld	ra,56(sp)
   10d72:	8522                	mv	a0,s0
   10d74:	7442                	ld	s0,48(sp)
   10d76:	74a2                	ld	s1,40(sp)
   10d78:	7902                	ld	s2,32(sp)
   10d7a:	69e2                	ld	s3,24(sp)
   10d7c:	6121                	addi	sp,sp,64
   10d7e:	8082                	ret

0000000000010d80 <fopen>:
   10d80:	87aa                	mv	a5,a0
   10d82:	8b01b503          	ld	a0,-1872(gp) # 26230 <_impure_ptr>
   10d86:	862e                	mv	a2,a1
   10d88:	85be                	mv	a1,a5
   10d8a:	b789                	j	10ccc <_fopen_r>

0000000000010d8c <_fprintf_r>:
   10d8c:	715d                	addi	sp,sp,-80
   10d8e:	02810313          	addi	t1,sp,40
   10d92:	f436                	sd	a3,40(sp)
   10d94:	869a                	mv	a3,t1
   10d96:	ec06                	sd	ra,24(sp)
   10d98:	f83a                	sd	a4,48(sp)
   10d9a:	fc3e                	sd	a5,56(sp)
   10d9c:	e0c2                	sd	a6,64(sp)
   10d9e:	e4c6                	sd	a7,72(sp)
   10da0:	e41a                	sd	t1,8(sp)
   10da2:	7f4010ef          	jal	ra,12596 <_vfprintf_r>
   10da6:	60e2                	ld	ra,24(sp)
   10da8:	6161                	addi	sp,sp,80
   10daa:	8082                	ret

0000000000010dac <fprintf>:
   10dac:	8e2a                	mv	t3,a0
   10dae:	715d                	addi	sp,sp,-80
   10db0:	8b01b503          	ld	a0,-1872(gp) # 26230 <_impure_ptr>
   10db4:	02010313          	addi	t1,sp,32
   10db8:	f032                	sd	a2,32(sp)
   10dba:	f436                	sd	a3,40(sp)
   10dbc:	862e                	mv	a2,a1
   10dbe:	869a                	mv	a3,t1
   10dc0:	85f2                	mv	a1,t3
   10dc2:	ec06                	sd	ra,24(sp)
   10dc4:	f83a                	sd	a4,48(sp)
   10dc6:	fc3e                	sd	a5,56(sp)
   10dc8:	e0c2                	sd	a6,64(sp)
   10dca:	e4c6                	sd	a7,72(sp)
   10dcc:	e41a                	sd	t1,8(sp)
   10dce:	7c8010ef          	jal	ra,12596 <_vfprintf_r>
   10dd2:	60e2                	ld	ra,24(sp)
   10dd4:	6161                	addi	sp,sp,80
   10dd6:	8082                	ret

0000000000010dd8 <_fputc_r>:
   10dd8:	1101                	addi	sp,sp,-32
   10dda:	e822                	sd	s0,16(sp)
   10ddc:	ec06                	sd	ra,24(sp)
   10dde:	842a                	mv	s0,a0
   10de0:	c119                	beqz	a0,10de6 <_fputc_r+0xe>
   10de2:	493c                	lw	a5,80(a0)
   10de4:	c799                	beqz	a5,10df2 <_fputc_r+0x1a>
   10de6:	8522                	mv	a0,s0
   10de8:	6442                	ld	s0,16(sp)
   10dea:	60e2                	ld	ra,24(sp)
   10dec:	6105                	addi	sp,sp,32
   10dee:	2240106f          	j	12012 <_putc_r>
   10df2:	e432                	sd	a2,8(sp)
   10df4:	e02e                	sd	a1,0(sp)
   10df6:	eabff0ef          	jal	ra,10ca0 <__sinit>
   10dfa:	8522                	mv	a0,s0
   10dfc:	6442                	ld	s0,16(sp)
   10dfe:	6622                	ld	a2,8(sp)
   10e00:	6582                	ld	a1,0(sp)
   10e02:	60e2                	ld	ra,24(sp)
   10e04:	6105                	addi	sp,sp,32
   10e06:	20c0106f          	j	12012 <_putc_r>

0000000000010e0a <fputc>:
   10e0a:	7179                	addi	sp,sp,-48
   10e0c:	ec26                	sd	s1,24(sp)
   10e0e:	8b01b483          	ld	s1,-1872(gp) # 26230 <_impure_ptr>
   10e12:	f022                	sd	s0,32(sp)
   10e14:	f406                	sd	ra,40(sp)
   10e16:	842a                	mv	s0,a0
   10e18:	862e                	mv	a2,a1
   10e1a:	c099                	beqz	s1,10e20 <fputc+0x16>
   10e1c:	48bc                	lw	a5,80(s1)
   10e1e:	cb89                	beqz	a5,10e30 <fputc+0x26>
   10e20:	85a2                	mv	a1,s0
   10e22:	7402                	ld	s0,32(sp)
   10e24:	70a2                	ld	ra,40(sp)
   10e26:	8526                	mv	a0,s1
   10e28:	64e2                	ld	s1,24(sp)
   10e2a:	6145                	addi	sp,sp,48
   10e2c:	1e60106f          	j	12012 <_putc_r>
   10e30:	8526                	mv	a0,s1
   10e32:	e42e                	sd	a1,8(sp)
   10e34:	e6dff0ef          	jal	ra,10ca0 <__sinit>
   10e38:	85a2                	mv	a1,s0
   10e3a:	7402                	ld	s0,32(sp)
   10e3c:	6622                	ld	a2,8(sp)
   10e3e:	70a2                	ld	ra,40(sp)
   10e40:	8526                	mv	a0,s1
   10e42:	64e2                	ld	s1,24(sp)
   10e44:	6145                	addi	sp,sp,48
   10e46:	1cc0106f          	j	12012 <_putc_r>

0000000000010e4a <_malloc_trim_r>:
   10e4a:	7179                	addi	sp,sp,-48
   10e4c:	e44e                	sd	s3,8(sp)
   10e4e:	000259b7          	lui	s3,0x25
   10e52:	f022                	sd	s0,32(sp)
   10e54:	ec26                	sd	s1,24(sp)
   10e56:	e84a                	sd	s2,16(sp)
   10e58:	e052                	sd	s4,0(sp)
   10e5a:	f406                	sd	ra,40(sp)
   10e5c:	8a2e                	mv	s4,a1
   10e5e:	892a                	mv	s2,a0
   10e60:	7b098993          	addi	s3,s3,1968 # 257b0 <__malloc_av_>
   10e64:	110010ef          	jal	ra,11f74 <__malloc_lock>
   10e68:	0109b703          	ld	a4,16(s3)
   10e6c:	6785                	lui	a5,0x1
   10e6e:	fdf78413          	addi	s0,a5,-33 # fdf <register_fini-0xf0d1>
   10e72:	6704                	ld	s1,8(a4)
   10e74:	41440433          	sub	s0,s0,s4
   10e78:	98f1                	andi	s1,s1,-4
   10e7a:	9426                	add	s0,s0,s1
   10e7c:	8031                	srli	s0,s0,0xc
   10e7e:	147d                	addi	s0,s0,-1
   10e80:	0432                	slli	s0,s0,0xc
   10e82:	00f44b63          	blt	s0,a5,10e98 <_malloc_trim_r+0x4e>
   10e86:	4581                	li	a1,0
   10e88:	854a                	mv	a0,s2
   10e8a:	568010ef          	jal	ra,123f2 <_sbrk_r>
   10e8e:	0109b783          	ld	a5,16(s3)
   10e92:	97a6                	add	a5,a5,s1
   10e94:	00f50e63          	beq	a0,a5,10eb0 <_malloc_trim_r+0x66>
   10e98:	854a                	mv	a0,s2
   10e9a:	0dc010ef          	jal	ra,11f76 <__malloc_unlock>
   10e9e:	70a2                	ld	ra,40(sp)
   10ea0:	7402                	ld	s0,32(sp)
   10ea2:	64e2                	ld	s1,24(sp)
   10ea4:	6942                	ld	s2,16(sp)
   10ea6:	69a2                	ld	s3,8(sp)
   10ea8:	6a02                	ld	s4,0(sp)
   10eaa:	4501                	li	a0,0
   10eac:	6145                	addi	sp,sp,48
   10eae:	8082                	ret
   10eb0:	408005b3          	neg	a1,s0
   10eb4:	854a                	mv	a0,s2
   10eb6:	53c010ef          	jal	ra,123f2 <_sbrk_r>
   10eba:	57fd                	li	a5,-1
   10ebc:	02f50c63          	beq	a0,a5,10ef4 <_malloc_trim_r+0xaa>
   10ec0:	0046a7b7          	lui	a5,0x46a
   10ec4:	4b878793          	addi	a5,a5,1208 # 46a4b8 <__malloc_current_mallinfo>
   10ec8:	4398                	lw	a4,0(a5)
   10eca:	0109b683          	ld	a3,16(s3)
   10ece:	8c81                	sub	s1,s1,s0
   10ed0:	0014e493          	ori	s1,s1,1
   10ed4:	4087043b          	subw	s0,a4,s0
   10ed8:	854a                	mv	a0,s2
   10eda:	e684                	sd	s1,8(a3)
   10edc:	c380                	sw	s0,0(a5)
   10ede:	098010ef          	jal	ra,11f76 <__malloc_unlock>
   10ee2:	70a2                	ld	ra,40(sp)
   10ee4:	7402                	ld	s0,32(sp)
   10ee6:	64e2                	ld	s1,24(sp)
   10ee8:	6942                	ld	s2,16(sp)
   10eea:	69a2                	ld	s3,8(sp)
   10eec:	6a02                	ld	s4,0(sp)
   10eee:	4505                	li	a0,1
   10ef0:	6145                	addi	sp,sp,48
   10ef2:	8082                	ret
   10ef4:	4581                	li	a1,0
   10ef6:	854a                	mv	a0,s2
   10ef8:	4fa010ef          	jal	ra,123f2 <_sbrk_r>
   10efc:	0109b703          	ld	a4,16(s3)
   10f00:	46fd                	li	a3,31
   10f02:	40e507b3          	sub	a5,a0,a4
   10f06:	f8f6d9e3          	bge	a3,a5,10e98 <_malloc_trim_r+0x4e>
   10f0a:	8b81b683          	ld	a3,-1864(gp) # 26238 <__malloc_sbrk_base>
   10f0e:	0017e793          	ori	a5,a5,1
   10f12:	e71c                	sd	a5,8(a4)
   10f14:	8d15                	sub	a0,a0,a3
   10f16:	0046a6b7          	lui	a3,0x46a
   10f1a:	4aa6ac23          	sw	a0,1208(a3) # 46a4b8 <__malloc_current_mallinfo>
   10f1e:	bfad                	j	10e98 <_malloc_trim_r+0x4e>

0000000000010f20 <_free_r>:
   10f20:	c9e5                	beqz	a1,11010 <_free_r+0xf0>
   10f22:	1101                	addi	sp,sp,-32
   10f24:	e822                	sd	s0,16(sp)
   10f26:	e426                	sd	s1,8(sp)
   10f28:	842e                	mv	s0,a1
   10f2a:	84aa                	mv	s1,a0
   10f2c:	ec06                	sd	ra,24(sp)
   10f2e:	046010ef          	jal	ra,11f74 <__malloc_lock>
   10f32:	ff843503          	ld	a0,-8(s0)
   10f36:	ff040713          	addi	a4,s0,-16
   10f3a:	000255b7          	lui	a1,0x25
   10f3e:	ffe57793          	andi	a5,a0,-2
   10f42:	00f70633          	add	a2,a4,a5
   10f46:	7b058593          	addi	a1,a1,1968 # 257b0 <__malloc_av_>
   10f4a:	6614                	ld	a3,8(a2)
   10f4c:	0105b803          	ld	a6,16(a1)
   10f50:	9af1                	andi	a3,a3,-4
   10f52:	14c80263          	beq	a6,a2,11096 <_free_r+0x176>
   10f56:	e614                	sd	a3,8(a2)
   10f58:	8905                	andi	a0,a0,1
   10f5a:	00d60833          	add	a6,a2,a3
   10f5e:	e149                	bnez	a0,10fe0 <_free_r+0xc0>
   10f60:	ff043303          	ld	t1,-16(s0)
   10f64:	00883803          	ld	a6,8(a6)
   10f68:	00025537          	lui	a0,0x25
   10f6c:	40670733          	sub	a4,a4,t1
   10f70:	01073883          	ld	a7,16(a4)
   10f74:	7c050513          	addi	a0,a0,1984 # 257c0 <__malloc_av_+0x10>
   10f78:	979a                	add	a5,a5,t1
   10f7a:	00187813          	andi	a6,a6,1
   10f7e:	0ea88963          	beq	a7,a0,11070 <_free_r+0x150>
   10f82:	01873303          	ld	t1,24(a4)
   10f86:	0068bc23          	sd	t1,24(a7)
   10f8a:	01133823          	sd	a7,16(t1) # 1015a <read_data+0x6>
   10f8e:	14080e63          	beqz	a6,110ea <_free_r+0x1ca>
   10f92:	0017e693          	ori	a3,a5,1
   10f96:	e714                	sd	a3,8(a4)
   10f98:	e21c                	sd	a5,0(a2)
   10f9a:	1ff00693          	li	a3,511
   10f9e:	08f6e363          	bltu	a3,a5,11024 <_free_r+0x104>
   10fa2:	838d                	srli	a5,a5,0x3
   10fa4:	0017869b          	addiw	a3,a5,1
   10fa8:	0016969b          	slliw	a3,a3,0x1
   10fac:	068e                	slli	a3,a3,0x3
   10fae:	0085b803          	ld	a6,8(a1)
   10fb2:	96ae                	add	a3,a3,a1
   10fb4:	6288                	ld	a0,0(a3)
   10fb6:	4027d61b          	sraiw	a2,a5,0x2
   10fba:	4785                	li	a5,1
   10fbc:	00c797b3          	sll	a5,a5,a2
   10fc0:	0107e7b3          	or	a5,a5,a6
   10fc4:	ff068613          	addi	a2,a3,-16
   10fc8:	ef10                	sd	a2,24(a4)
   10fca:	eb08                	sd	a0,16(a4)
   10fcc:	e59c                	sd	a5,8(a1)
   10fce:	e298                	sd	a4,0(a3)
   10fd0:	ed18                	sd	a4,24(a0)
   10fd2:	6442                	ld	s0,16(sp)
   10fd4:	60e2                	ld	ra,24(sp)
   10fd6:	8526                	mv	a0,s1
   10fd8:	64a2                	ld	s1,8(sp)
   10fda:	6105                	addi	sp,sp,32
   10fdc:	79b0006f          	j	11f76 <__malloc_unlock>
   10fe0:	00883503          	ld	a0,8(a6)
   10fe4:	8905                	andi	a0,a0,1
   10fe6:	e515                	bnez	a0,11012 <_free_r+0xf2>
   10fe8:	00025537          	lui	a0,0x25
   10fec:	97b6                	add	a5,a5,a3
   10fee:	7c050513          	addi	a0,a0,1984 # 257c0 <__malloc_av_+0x10>
   10ff2:	6a14                	ld	a3,16(a2)
   10ff4:	0017e893          	ori	a7,a5,1
   10ff8:	00f70833          	add	a6,a4,a5
   10ffc:	10a68163          	beq	a3,a0,110fe <_free_r+0x1de>
   11000:	6e10                	ld	a2,24(a2)
   11002:	ee90                	sd	a2,24(a3)
   11004:	ea14                	sd	a3,16(a2)
   11006:	01173423          	sd	a7,8(a4)
   1100a:	00f83023          	sd	a5,0(a6)
   1100e:	b771                	j	10f9a <_free_r+0x7a>
   11010:	8082                	ret
   11012:	0017e693          	ori	a3,a5,1
   11016:	fed43c23          	sd	a3,-8(s0)
   1101a:	e21c                	sd	a5,0(a2)
   1101c:	1ff00693          	li	a3,511
   11020:	f8f6f1e3          	bgeu	a3,a5,10fa2 <_free_r+0x82>
   11024:	0097d693          	srli	a3,a5,0x9
   11028:	4611                	li	a2,4
   1102a:	08d66f63          	bltu	a2,a3,110c8 <_free_r+0x1a8>
   1102e:	0067d693          	srli	a3,a5,0x6
   11032:	0396851b          	addiw	a0,a3,57
   11036:	0015151b          	slliw	a0,a0,0x1
   1103a:	0386861b          	addiw	a2,a3,56
   1103e:	050e                	slli	a0,a0,0x3
   11040:	952e                	add	a0,a0,a1
   11042:	6114                	ld	a3,0(a0)
   11044:	1541                	addi	a0,a0,-16
   11046:	0cd50563          	beq	a0,a3,11110 <_free_r+0x1f0>
   1104a:	6690                	ld	a2,8(a3)
   1104c:	9a71                	andi	a2,a2,-4
   1104e:	00c7f563          	bgeu	a5,a2,11058 <_free_r+0x138>
   11052:	6a94                	ld	a3,16(a3)
   11054:	fed51be3          	bne	a0,a3,1104a <_free_r+0x12a>
   11058:	6e88                	ld	a0,24(a3)
   1105a:	ef08                	sd	a0,24(a4)
   1105c:	eb14                	sd	a3,16(a4)
   1105e:	6442                	ld	s0,16(sp)
   11060:	e918                	sd	a4,16(a0)
   11062:	60e2                	ld	ra,24(sp)
   11064:	8526                	mv	a0,s1
   11066:	64a2                	ld	s1,8(sp)
   11068:	ee98                	sd	a4,24(a3)
   1106a:	6105                	addi	sp,sp,32
   1106c:	70b0006f          	j	11f76 <__malloc_unlock>
   11070:	0e081c63          	bnez	a6,11168 <_free_r+0x248>
   11074:	6e0c                	ld	a1,24(a2)
   11076:	6a10                	ld	a2,16(a2)
   11078:	97b6                	add	a5,a5,a3
   1107a:	6442                	ld	s0,16(sp)
   1107c:	ee0c                	sd	a1,24(a2)
   1107e:	e990                	sd	a2,16(a1)
   11080:	0017e693          	ori	a3,a5,1
   11084:	60e2                	ld	ra,24(sp)
   11086:	e714                	sd	a3,8(a4)
   11088:	8526                	mv	a0,s1
   1108a:	973e                	add	a4,a4,a5
   1108c:	64a2                	ld	s1,8(sp)
   1108e:	e31c                	sd	a5,0(a4)
   11090:	6105                	addi	sp,sp,32
   11092:	6e50006f          	j	11f76 <__malloc_unlock>
   11096:	8905                	andi	a0,a0,1
   11098:	97b6                	add	a5,a5,a3
   1109a:	e909                	bnez	a0,110ac <_free_r+0x18c>
   1109c:	ff043503          	ld	a0,-16(s0)
   110a0:	8f09                	sub	a4,a4,a0
   110a2:	6f14                	ld	a3,24(a4)
   110a4:	6b10                	ld	a2,16(a4)
   110a6:	97aa                	add	a5,a5,a0
   110a8:	ee14                	sd	a3,24(a2)
   110aa:	ea90                	sd	a2,16(a3)
   110ac:	0017e613          	ori	a2,a5,1
   110b0:	8c01b683          	ld	a3,-1856(gp) # 26240 <__malloc_trim_threshold>
   110b4:	e710                	sd	a2,8(a4)
   110b6:	e998                	sd	a4,16(a1)
   110b8:	f0d7ede3          	bltu	a5,a3,10fd2 <_free_r+0xb2>
   110bc:	8e01b583          	ld	a1,-1824(gp) # 26260 <__malloc_top_pad>
   110c0:	8526                	mv	a0,s1
   110c2:	d89ff0ef          	jal	ra,10e4a <_malloc_trim_r>
   110c6:	b731                	j	10fd2 <_free_r+0xb2>
   110c8:	4651                	li	a2,20
   110ca:	02d67263          	bgeu	a2,a3,110ee <_free_r+0x1ce>
   110ce:	05400613          	li	a2,84
   110d2:	04d66a63          	bltu	a2,a3,11126 <_free_r+0x206>
   110d6:	00c7d693          	srli	a3,a5,0xc
   110da:	06f6851b          	addiw	a0,a3,111
   110de:	0015151b          	slliw	a0,a0,0x1
   110e2:	06e6861b          	addiw	a2,a3,110
   110e6:	050e                	slli	a0,a0,0x3
   110e8:	bfa1                	j	11040 <_free_r+0x120>
   110ea:	97b6                	add	a5,a5,a3
   110ec:	b719                	j	10ff2 <_free_r+0xd2>
   110ee:	05c6851b          	addiw	a0,a3,92
   110f2:	0015151b          	slliw	a0,a0,0x1
   110f6:	05b6861b          	addiw	a2,a3,91
   110fa:	050e                	slli	a0,a0,0x3
   110fc:	b791                	j	11040 <_free_r+0x120>
   110fe:	f598                	sd	a4,40(a1)
   11100:	f198                	sd	a4,32(a1)
   11102:	ef08                	sd	a0,24(a4)
   11104:	eb08                	sd	a0,16(a4)
   11106:	01173423          	sd	a7,8(a4)
   1110a:	00f83023          	sd	a5,0(a6)
   1110e:	b5d1                	j	10fd2 <_free_r+0xb2>
   11110:	0085b803          	ld	a6,8(a1)
   11114:	4026561b          	sraiw	a2,a2,0x2
   11118:	4785                	li	a5,1
   1111a:	00c79633          	sll	a2,a5,a2
   1111e:	01066633          	or	a2,a2,a6
   11122:	e590                	sd	a2,8(a1)
   11124:	bf1d                	j	1105a <_free_r+0x13a>
   11126:	15400613          	li	a2,340
   1112a:	00d66c63          	bltu	a2,a3,11142 <_free_r+0x222>
   1112e:	00f7d693          	srli	a3,a5,0xf
   11132:	0786851b          	addiw	a0,a3,120
   11136:	0015151b          	slliw	a0,a0,0x1
   1113a:	0776861b          	addiw	a2,a3,119
   1113e:	050e                	slli	a0,a0,0x3
   11140:	b701                	j	11040 <_free_r+0x120>
   11142:	55400613          	li	a2,1364
   11146:	00d66c63          	bltu	a2,a3,1115e <_free_r+0x23e>
   1114a:	0127d693          	srli	a3,a5,0x12
   1114e:	07d6851b          	addiw	a0,a3,125
   11152:	0015151b          	slliw	a0,a0,0x1
   11156:	07c6861b          	addiw	a2,a3,124
   1115a:	050e                	slli	a0,a0,0x3
   1115c:	b5d5                	j	11040 <_free_r+0x120>
   1115e:	7f000513          	li	a0,2032
   11162:	07e00613          	li	a2,126
   11166:	bde9                	j	11040 <_free_r+0x120>
   11168:	0017e693          	ori	a3,a5,1
   1116c:	e714                	sd	a3,8(a4)
   1116e:	e21c                	sd	a5,0(a2)
   11170:	b58d                	j	10fd2 <_free_r+0xb2>

0000000000011172 <fscanf>:
   11172:	8e2a                	mv	t3,a0
   11174:	715d                	addi	sp,sp,-80
   11176:	8b01b503          	ld	a0,-1872(gp) # 26230 <_impure_ptr>
   1117a:	02010313          	addi	t1,sp,32
   1117e:	f032                	sd	a2,32(sp)
   11180:	f436                	sd	a3,40(sp)
   11182:	862e                	mv	a2,a1
   11184:	869a                	mv	a3,t1
   11186:	85f2                	mv	a1,t3
   11188:	ec06                	sd	ra,24(sp)
   1118a:	f83a                	sd	a4,48(sp)
   1118c:	fc3e                	sd	a5,56(sp)
   1118e:	e0c2                	sd	a6,64(sp)
   11190:	e4c6                	sd	a7,72(sp)
   11192:	e41a                	sd	t1,8(sp)
   11194:	3e4050ef          	jal	ra,16578 <_vfscanf_r>
   11198:	60e2                	ld	ra,24(sp)
   1119a:	6161                	addi	sp,sp,80
   1119c:	8082                	ret

000000000001119e <_fscanf_r>:
   1119e:	715d                	addi	sp,sp,-80
   111a0:	02810313          	addi	t1,sp,40
   111a4:	f436                	sd	a3,40(sp)
   111a6:	869a                	mv	a3,t1
   111a8:	ec06                	sd	ra,24(sp)
   111aa:	f83a                	sd	a4,48(sp)
   111ac:	fc3e                	sd	a5,56(sp)
   111ae:	e0c2                	sd	a6,64(sp)
   111b0:	e4c6                	sd	a7,72(sp)
   111b2:	e41a                	sd	t1,8(sp)
   111b4:	3c4050ef          	jal	ra,16578 <_vfscanf_r>
   111b8:	60e2                	ld	ra,24(sp)
   111ba:	6161                	addi	sp,sp,80
   111bc:	8082                	ret

00000000000111be <_fseek_r>:
   111be:	a801                	j	111ce <_fseeko_r>

00000000000111c0 <fseek>:
   111c0:	87aa                	mv	a5,a0
   111c2:	8b01b503          	ld	a0,-1872(gp) # 26230 <_impure_ptr>
   111c6:	86b2                	mv	a3,a2
   111c8:	862e                	mv	a2,a1
   111ca:	85be                	mv	a1,a5
   111cc:	a009                	j	111ce <_fseeko_r>

00000000000111ce <_fseeko_r>:
   111ce:	7131                	addi	sp,sp,-192
   111d0:	f922                	sd	s0,176(sp)
   111d2:	f526                	sd	s1,168(sp)
   111d4:	f14a                	sd	s2,160(sp)
   111d6:	ed4e                	sd	s3,152(sp)
   111d8:	fd06                	sd	ra,184(sp)
   111da:	e952                	sd	s4,144(sp)
   111dc:	e556                	sd	s5,136(sp)
   111de:	e15a                	sd	s6,128(sp)
   111e0:	fcde                	sd	s7,120(sp)
   111e2:	84aa                	mv	s1,a0
   111e4:	842e                	mv	s0,a1
   111e6:	89b2                	mv	s3,a2
   111e8:	8936                	mv	s2,a3
   111ea:	c119                	beqz	a0,111f0 <_fseeko_r+0x22>
   111ec:	493c                	lw	a5,80(a0)
   111ee:	c3b9                	beqz	a5,11234 <_fseeko_r+0x66>
   111f0:	01045783          	lhu	a5,16(s0)
   111f4:	10800713          	li	a4,264
   111f8:	1087f793          	andi	a5,a5,264
   111fc:	04e78663          	beq	a5,a4,11248 <_fseeko_r+0x7a>
   11200:	04843a83          	ld	s5,72(s0)
   11204:	280a8463          	beqz	s5,1148c <_fseeko_r+0x2be>
   11208:	4785                	li	a5,1
   1120a:	04f90463          	beq	s2,a5,11252 <_fseeko_r+0x84>
   1120e:	ffd97b13          	andi	s6,s2,-3
   11212:	0e0b0163          	beqz	s6,112f4 <_fseeko_r+0x126>
   11216:	47d9                	li	a5,22
   11218:	c09c                	sw	a5,0(s1)
   1121a:	5a7d                	li	s4,-1
   1121c:	70ea                	ld	ra,184(sp)
   1121e:	744a                	ld	s0,176(sp)
   11220:	74aa                	ld	s1,168(sp)
   11222:	790a                	ld	s2,160(sp)
   11224:	69ea                	ld	s3,152(sp)
   11226:	6aaa                	ld	s5,136(sp)
   11228:	6b0a                	ld	s6,128(sp)
   1122a:	7be6                	ld	s7,120(sp)
   1122c:	8552                	mv	a0,s4
   1122e:	6a4a                	ld	s4,144(sp)
   11230:	6129                	addi	sp,sp,192
   11232:	8082                	ret
   11234:	a6dff0ef          	jal	ra,10ca0 <__sinit>
   11238:	01045783          	lhu	a5,16(s0)
   1123c:	10800713          	li	a4,264
   11240:	1087f793          	andi	a5,a5,264
   11244:	fae79ee3          	bne	a5,a4,11200 <_fseeko_r+0x32>
   11248:	85a2                	mv	a1,s0
   1124a:	8526                	mv	a0,s1
   1124c:	f72ff0ef          	jal	ra,109be <_fflush_r>
   11250:	bf45                	j	11200 <_fseeko_r+0x32>
   11252:	85a2                	mv	a1,s0
   11254:	8526                	mv	a0,s1
   11256:	286000ef          	jal	ra,114dc <_ftello_r>
   1125a:	57fd                	li	a5,-1
   1125c:	8a2a                	mv	s4,a0
   1125e:	faf50ee3          	beq	a0,a5,1121a <_fseeko_r+0x4c>
   11262:	6c1c                	ld	a5,24(s0)
   11264:	99aa                	add	s3,s3,a0
   11266:	4b05                	li	s6,1
   11268:	4901                	li	s2,0
   1126a:	cbc1                	beqz	a5,112fa <_fseeko_r+0x12c>
   1126c:	01041683          	lh	a3,16(s0)
   11270:	6785                	lui	a5,0x1
   11272:	81a78793          	addi	a5,a5,-2022 # 81a <register_fini-0xf896>
   11276:	03069713          	slli	a4,a3,0x30
   1127a:	9341                	srli	a4,a4,0x30
   1127c:	8ff9                	and	a5,a5,a4
   1127e:	ef99                	bnez	a5,1129c <_fseeko_r+0xce>
   11280:	40077713          	andi	a4,a4,1024
   11284:	eb55                	bnez	a4,11338 <_fseeko_r+0x16a>
   11286:	67c9                	lui	a5,0x12
   11288:	4b878793          	addi	a5,a5,1208 # 124b8 <__sseek>
   1128c:	06fa8c63          	beq	s5,a5,11304 <_fseeko_r+0x136>
   11290:	6785                	lui	a5,0x1
   11292:	80078793          	addi	a5,a5,-2048 # 800 <register_fini-0xf8b0>
   11296:	8edd                	or	a3,a3,a5
   11298:	00d41823          	sh	a3,16(s0)
   1129c:	85a2                	mv	a1,s0
   1129e:	8526                	mv	a0,s1
   112a0:	f1eff0ef          	jal	ra,109be <_fflush_r>
   112a4:	8a2a                	mv	s4,a0
   112a6:	f935                	bnez	a0,1121a <_fseeko_r+0x4c>
   112a8:	780c                	ld	a1,48(s0)
   112aa:	86ca                	mv	a3,s2
   112ac:	864e                	mv	a2,s3
   112ae:	8526                	mv	a0,s1
   112b0:	9a82                	jalr	s5
   112b2:	57fd                	li	a5,-1
   112b4:	f6f503e3          	beq	a0,a5,1121a <_fseeko_r+0x4c>
   112b8:	6c2c                	ld	a1,88(s0)
   112ba:	c991                	beqz	a1,112ce <_fseeko_r+0x100>
   112bc:	07440793          	addi	a5,s0,116
   112c0:	00f58563          	beq	a1,a5,112ca <_fseeko_r+0xfc>
   112c4:	8526                	mv	a0,s1
   112c6:	c5bff0ef          	jal	ra,10f20 <_free_r>
   112ca:	04043c23          	sd	zero,88(s0)
   112ce:	01045783          	lhu	a5,16(s0)
   112d2:	6c14                	ld	a3,24(s0)
   112d4:	777d                	lui	a4,0xfffff
   112d6:	7df70713          	addi	a4,a4,2015 # fffffffffffff7df <__BSS_END__+0xffffffffffb952ff>
   112da:	8ff9                	and	a5,a5,a4
   112dc:	e014                	sd	a3,0(s0)
   112de:	00042423          	sw	zero,8(s0)
   112e2:	00f41823          	sh	a5,16(s0)
   112e6:	4621                	li	a2,8
   112e8:	4581                	li	a1,0
   112ea:	0a440513          	addi	a0,s0,164
   112ee:	3dd000ef          	jal	ra,11eca <memset>
   112f2:	b72d                	j	1121c <_fseeko_r+0x4e>
   112f4:	6c1c                	ld	a5,24(s0)
   112f6:	4a01                	li	s4,0
   112f8:	fbb5                	bnez	a5,1126c <_fseeko_r+0x9e>
   112fa:	85a2                	mv	a1,s0
   112fc:	8526                	mv	a0,s1
   112fe:	40c000ef          	jal	ra,1170a <__smakebuf_r>
   11302:	b7ad                	j	1126c <_fseeko_r+0x9e>
   11304:	01241583          	lh	a1,18(s0)
   11308:	f805c4e3          	bltz	a1,11290 <_fseeko_r+0xc2>
   1130c:	0030                	addi	a2,sp,8
   1130e:	8526                	mv	a0,s1
   11310:	192000ef          	jal	ra,114a2 <_fstat_r>
   11314:	12051763          	bnez	a0,11442 <_fseeko_r+0x274>
   11318:	47b2                	lw	a5,12(sp)
   1131a:	66bd                	lui	a3,0xf
   1131c:	6721                	lui	a4,0x8
   1131e:	8ff5                	and	a5,a5,a3
   11320:	01041683          	lh	a3,16(s0)
   11324:	f6e796e3          	bne	a5,a4,11290 <_fseeko_r+0xc2>
   11328:	4006e693          	ori	a3,a3,1024
   1132c:	40000793          	li	a5,1024
   11330:	08f42423          	sw	a5,136(s0)
   11334:	00d41823          	sh	a3,16(s0)
   11338:	8bce                	mv	s7,s3
   1133a:	0c091563          	bnez	s2,11404 <_fseeko_r+0x236>
   1133e:	020b1263          	bnez	s6,11362 <_fseeko_r+0x194>
   11342:	01045703          	lhu	a4,16(s0)
   11346:	6785                	lui	a5,0x1
   11348:	8ff9                	and	a5,a5,a4
   1134a:	c3fd                	beqz	a5,11430 <_fseeko_r+0x262>
   1134c:	6848                	ld	a0,144(s0)
   1134e:	441c                	lw	a5,8(s0)
   11350:	6c2c                	ld	a1,88(s0)
   11352:	873e                	mv	a4,a5
   11354:	40f50a33          	sub	s4,a0,a5
   11358:	c5e1                	beqz	a1,11420 <_fseeko_r+0x252>
   1135a:	5838                	lw	a4,112(s0)
   1135c:	40ea0a33          	sub	s4,s4,a4
   11360:	a029                	j	1136a <_fseeko_r+0x19c>
   11362:	6c2c                	ld	a1,88(s0)
   11364:	cdcd                	beqz	a1,1141e <_fseeko_r+0x250>
   11366:	441c                	lw	a5,8(s0)
   11368:	5838                	lw	a4,112(s0)
   1136a:	7434                	ld	a3,104(s0)
   1136c:	6c10                	ld	a2,24(s0)
   1136e:	9a3e                	add	s4,s4,a5
   11370:	40c687b3          	sub	a5,a3,a2
   11374:	40fa0a33          	sub	s4,s4,a5
   11378:	973e                	add	a4,a4,a5
   1137a:	014bc663          	blt	s7,s4,11386 <_fseeko_r+0x1b8>
   1137e:	00ea07b3          	add	a5,s4,a4
   11382:	0cfbe363          	bltu	s7,a5,11448 <_fseeko_r+0x27a>
   11386:	08842b03          	lw	s6,136(s0)
   1138a:	780c                	ld	a1,48(s0)
   1138c:	4681                	li	a3,0
   1138e:	41600b3b          	negw	s6,s6
   11392:	017b7b33          	and	s6,s6,s7
   11396:	865a                	mv	a2,s6
   11398:	8526                	mv	a0,s1
   1139a:	9a82                	jalr	s5
   1139c:	57fd                	li	a5,-1
   1139e:	eef50fe3          	beq	a0,a5,1129c <_fseeko_r+0xce>
   113a2:	6c1c                	ld	a5,24(s0)
   113a4:	6c2c                	ld	a1,88(s0)
   113a6:	00042423          	sw	zero,8(s0)
   113aa:	e01c                	sd	a5,0(s0)
   113ac:	c991                	beqz	a1,113c0 <_fseeko_r+0x1f2>
   113ae:	07440793          	addi	a5,s0,116
   113b2:	00f58563          	beq	a1,a5,113bc <_fseeko_r+0x1ee>
   113b6:	8526                	mv	a0,s1
   113b8:	b69ff0ef          	jal	ra,10f20 <_free_r>
   113bc:	04043c23          	sd	zero,88(s0)
   113c0:	01045783          	lhu	a5,16(s0)
   113c4:	416b8a33          	sub	s4,s7,s6
   113c8:	fdf7f793          	andi	a5,a5,-33
   113cc:	00f41823          	sh	a5,16(s0)
   113d0:	036b8263          	beq	s7,s6,113f4 <_fseeko_r+0x226>
   113d4:	85a2                	mv	a1,s0
   113d6:	8526                	mv	a0,s1
   113d8:	6b5000ef          	jal	ra,1228c <__srefill_r>
   113dc:	ec0510e3          	bnez	a0,1129c <_fseeko_r+0xce>
   113e0:	441c                	lw	a5,8(s0)
   113e2:	eb47ede3          	bltu	a5,s4,1129c <_fseeko_r+0xce>
   113e6:	6018                	ld	a4,0(s0)
   113e8:	414787bb          	subw	a5,a5,s4
   113ec:	c41c                	sw	a5,8(s0)
   113ee:	9a3a                	add	s4,s4,a4
   113f0:	01443023          	sd	s4,0(s0)
   113f4:	4621                	li	a2,8
   113f6:	4581                	li	a1,0
   113f8:	0a440513          	addi	a0,s0,164
   113fc:	2cf000ef          	jal	ra,11eca <memset>
   11400:	4a01                	li	s4,0
   11402:	bd29                	j	1121c <_fseeko_r+0x4e>
   11404:	01241583          	lh	a1,18(s0)
   11408:	0030                	addi	a2,sp,8
   1140a:	8526                	mv	a0,s1
   1140c:	096000ef          	jal	ra,114a2 <_fstat_r>
   11410:	e80516e3          	bnez	a0,1129c <_fseeko_r+0xce>
   11414:	6be2                	ld	s7,24(sp)
   11416:	9bce                	add	s7,s7,s3
   11418:	f40b15e3          	bnez	s6,11362 <_fseeko_r+0x194>
   1141c:	b71d                	j	11342 <_fseeko_r+0x174>
   1141e:	4418                	lw	a4,8(s0)
   11420:	601c                	ld	a5,0(s0)
   11422:	6c10                	ld	a2,24(s0)
   11424:	4581                	li	a1,0
   11426:	8f91                	sub	a5,a5,a2
   11428:	40fa0a33          	sub	s4,s4,a5
   1142c:	973e                	add	a4,a4,a5
   1142e:	b7b1                	j	1137a <_fseeko_r+0x1ac>
   11430:	780c                	ld	a1,48(s0)
   11432:	4685                	li	a3,1
   11434:	4601                	li	a2,0
   11436:	8526                	mv	a0,s1
   11438:	9a82                	jalr	s5
   1143a:	57fd                	li	a5,-1
   1143c:	f0f519e3          	bne	a0,a5,1134e <_fseeko_r+0x180>
   11440:	bdb1                	j	1129c <_fseeko_r+0xce>
   11442:	01041683          	lh	a3,16(s0)
   11446:	b5a9                	j	11290 <_fseeko_r+0xc2>
   11448:	414b87bb          	subw	a5,s7,s4
   1144c:	00ea0a3b          	addw	s4,s4,a4
   11450:	963e                	add	a2,a2,a5
   11452:	417a0a3b          	subw	s4,s4,s7
   11456:	e010                	sd	a2,0(s0)
   11458:	01442423          	sw	s4,8(s0)
   1145c:	c991                	beqz	a1,11470 <_fseeko_r+0x2a2>
   1145e:	07440793          	addi	a5,s0,116
   11462:	00f58563          	beq	a1,a5,1146c <_fseeko_r+0x29e>
   11466:	8526                	mv	a0,s1
   11468:	ab9ff0ef          	jal	ra,10f20 <_free_r>
   1146c:	04043c23          	sd	zero,88(s0)
   11470:	01045783          	lhu	a5,16(s0)
   11474:	4621                	li	a2,8
   11476:	4581                	li	a1,0
   11478:	fdf7f793          	andi	a5,a5,-33
   1147c:	00f41823          	sh	a5,16(s0)
   11480:	0a440513          	addi	a0,s0,164
   11484:	247000ef          	jal	ra,11eca <memset>
   11488:	4a01                	li	s4,0
   1148a:	bb49                	j	1121c <_fseeko_r+0x4e>
   1148c:	47f5                	li	a5,29
   1148e:	c09c                	sw	a5,0(s1)
   11490:	5a7d                	li	s4,-1
   11492:	b369                	j	1121c <_fseeko_r+0x4e>

0000000000011494 <fseeko>:
   11494:	87aa                	mv	a5,a0
   11496:	8b01b503          	ld	a0,-1872(gp) # 26230 <_impure_ptr>
   1149a:	86b2                	mv	a3,a2
   1149c:	862e                	mv	a2,a1
   1149e:	85be                	mv	a1,a5
   114a0:	b33d                	j	111ce <_fseeko_r>

00000000000114a2 <_fstat_r>:
   114a2:	1101                	addi	sp,sp,-32
   114a4:	872e                	mv	a4,a1
   114a6:	e822                	sd	s0,16(sp)
   114a8:	e426                	sd	s1,8(sp)
   114aa:	842a                	mv	s0,a0
   114ac:	85b2                	mv	a1,a2
   114ae:	853a                	mv	a0,a4
   114b0:	ec06                	sd	ra,24(sp)
   114b2:	8e01a423          	sw	zero,-1816(gp) # 26268 <errno>
   114b6:	493100ef          	jal	ra,22148 <_fstat>
   114ba:	57fd                	li	a5,-1
   114bc:	00f50763          	beq	a0,a5,114ca <_fstat_r+0x28>
   114c0:	60e2                	ld	ra,24(sp)
   114c2:	6442                	ld	s0,16(sp)
   114c4:	64a2                	ld	s1,8(sp)
   114c6:	6105                	addi	sp,sp,32
   114c8:	8082                	ret
   114ca:	8e81a783          	lw	a5,-1816(gp) # 26268 <errno>
   114ce:	dbed                	beqz	a5,114c0 <_fstat_r+0x1e>
   114d0:	60e2                	ld	ra,24(sp)
   114d2:	c01c                	sw	a5,0(s0)
   114d4:	6442                	ld	s0,16(sp)
   114d6:	64a2                	ld	s1,8(sp)
   114d8:	6105                	addi	sp,sp,32
   114da:	8082                	ret

00000000000114dc <_ftello_r>:
   114dc:	1101                	addi	sp,sp,-32
   114de:	e822                	sd	s0,16(sp)
   114e0:	e426                	sd	s1,8(sp)
   114e2:	ec06                	sd	ra,24(sp)
   114e4:	84aa                	mv	s1,a0
   114e6:	842e                	mv	s0,a1
   114e8:	c119                	beqz	a0,114ee <_ftello_r+0x12>
   114ea:	493c                	lw	a5,80(a0)
   114ec:	c7bd                	beqz	a5,1155a <_ftello_r+0x7e>
   114ee:	04843803          	ld	a6,72(s0)
   114f2:	08080363          	beqz	a6,11578 <_ftello_r+0x9c>
   114f6:	01045783          	lhu	a5,16(s0)
   114fa:	4721                	li	a4,8
   114fc:	00c7f693          	andi	a3,a5,12
   11500:	06e68063          	beq	a3,a4,11560 <_ftello_r+0x84>
   11504:	6705                	lui	a4,0x1
   11506:	8f7d                	and	a4,a4,a5
   11508:	eb0d                	bnez	a4,1153a <_ftello_r+0x5e>
   1150a:	780c                	ld	a1,48(s0)
   1150c:	4685                	li	a3,1
   1150e:	4601                	li	a2,0
   11510:	8526                	mv	a0,s1
   11512:	9802                	jalr	a6
   11514:	57fd                	li	a5,-1
   11516:	06f50563          	beq	a0,a5,11580 <_ftello_r+0xa4>
   1151a:	01045783          	lhu	a5,16(s0)
   1151e:	0047f713          	andi	a4,a5,4
   11522:	c305                	beqz	a4,11542 <_ftello_r+0x66>
   11524:	4418                	lw	a4,8(s0)
   11526:	6c3c                	ld	a5,88(s0)
   11528:	8d19                	sub	a0,a0,a4
   1152a:	c399                	beqz	a5,11530 <_ftello_r+0x54>
   1152c:	583c                	lw	a5,112(s0)
   1152e:	8d1d                	sub	a0,a0,a5
   11530:	60e2                	ld	ra,24(sp)
   11532:	6442                	ld	s0,16(sp)
   11534:	64a2                	ld	s1,8(sp)
   11536:	6105                	addi	sp,sp,32
   11538:	8082                	ret
   1153a:	0047f713          	andi	a4,a5,4
   1153e:	6848                	ld	a0,144(s0)
   11540:	f375                	bnez	a4,11524 <_ftello_r+0x48>
   11542:	8ba1                	andi	a5,a5,8
   11544:	d7f5                	beqz	a5,11530 <_ftello_r+0x54>
   11546:	601c                	ld	a5,0(s0)
   11548:	d7e5                	beqz	a5,11530 <_ftello_r+0x54>
   1154a:	6c18                	ld	a4,24(s0)
   1154c:	60e2                	ld	ra,24(sp)
   1154e:	6442                	ld	s0,16(sp)
   11550:	8f99                	sub	a5,a5,a4
   11552:	64a2                	ld	s1,8(sp)
   11554:	953e                	add	a0,a0,a5
   11556:	6105                	addi	sp,sp,32
   11558:	8082                	ret
   1155a:	f46ff0ef          	jal	ra,10ca0 <__sinit>
   1155e:	bf41                	j	114ee <_ftello_r+0x12>
   11560:	6018                	ld	a4,0(s0)
   11562:	d34d                	beqz	a4,11504 <_ftello_r+0x28>
   11564:	6c14                	ld	a3,24(s0)
   11566:	8f15                	sub	a4,a4,a3
   11568:	f8e05ee3          	blez	a4,11504 <_ftello_r+0x28>
   1156c:	1007f713          	andi	a4,a5,256
   11570:	db51                	beqz	a4,11504 <_ftello_r+0x28>
   11572:	780c                	ld	a1,48(s0)
   11574:	4689                	li	a3,2
   11576:	bf61                	j	1150e <_ftello_r+0x32>
   11578:	47f5                	li	a5,29
   1157a:	c09c                	sw	a5,0(s1)
   1157c:	557d                	li	a0,-1
   1157e:	bf4d                	j	11530 <_ftello_r+0x54>
   11580:	557d                	li	a0,-1
   11582:	b77d                	j	11530 <_ftello_r+0x54>

0000000000011584 <ftello>:
   11584:	85aa                	mv	a1,a0
   11586:	8b01b503          	ld	a0,-1872(gp) # 26230 <_impure_ptr>
   1158a:	bf89                	j	114dc <_ftello_r>

000000000001158c <_fwalk>:
   1158c:	715d                	addi	sp,sp,-80
   1158e:	f84a                	sd	s2,48(sp)
   11590:	f44e                	sd	s3,40(sp)
   11592:	f052                	sd	s4,32(sp)
   11594:	ec56                	sd	s5,24(sp)
   11596:	e85a                	sd	s6,16(sp)
   11598:	e45e                	sd	s7,8(sp)
   1159a:	e486                	sd	ra,72(sp)
   1159c:	e0a2                	sd	s0,64(sp)
   1159e:	fc26                	sd	s1,56(sp)
   115a0:	8a2e                	mv	s4,a1
   115a2:	52050913          	addi	s2,a0,1312
   115a6:	4b01                	li	s6,0
   115a8:	0b000a93          	li	s5,176
   115ac:	4b85                	li	s7,1
   115ae:	59fd                	li	s3,-1
   115b0:	00892783          	lw	a5,8(s2)
   115b4:	01093403          	ld	s0,16(s2)
   115b8:	02f05b63          	blez	a5,115ee <_fwalk+0x62>
   115bc:	fff7849b          	addiw	s1,a5,-1
   115c0:	1482                	slli	s1,s1,0x20
   115c2:	9081                	srli	s1,s1,0x20
   115c4:	0485                	addi	s1,s1,1
   115c6:	035484b3          	mul	s1,s1,s5
   115ca:	94a2                	add	s1,s1,s0
   115cc:	01045783          	lhu	a5,16(s0)
   115d0:	00fbfb63          	bgeu	s7,a5,115e6 <_fwalk+0x5a>
   115d4:	01241783          	lh	a5,18(s0)
   115d8:	8522                	mv	a0,s0
   115da:	01378663          	beq	a5,s3,115e6 <_fwalk+0x5a>
   115de:	9a02                	jalr	s4
   115e0:	01656b33          	or	s6,a0,s6
   115e4:	2b01                	sext.w	s6,s6
   115e6:	0b040413          	addi	s0,s0,176
   115ea:	fe8491e3          	bne	s1,s0,115cc <_fwalk+0x40>
   115ee:	00093903          	ld	s2,0(s2)
   115f2:	fa091fe3          	bnez	s2,115b0 <_fwalk+0x24>
   115f6:	60a6                	ld	ra,72(sp)
   115f8:	6406                	ld	s0,64(sp)
   115fa:	74e2                	ld	s1,56(sp)
   115fc:	7942                	ld	s2,48(sp)
   115fe:	79a2                	ld	s3,40(sp)
   11600:	7a02                	ld	s4,32(sp)
   11602:	6ae2                	ld	s5,24(sp)
   11604:	6ba2                	ld	s7,8(sp)
   11606:	855a                	mv	a0,s6
   11608:	6b42                	ld	s6,16(sp)
   1160a:	6161                	addi	sp,sp,80
   1160c:	8082                	ret

000000000001160e <_fwalk_reent>:
   1160e:	715d                	addi	sp,sp,-80
   11610:	f84a                	sd	s2,48(sp)
   11612:	f44e                	sd	s3,40(sp)
   11614:	f052                	sd	s4,32(sp)
   11616:	ec56                	sd	s5,24(sp)
   11618:	e85a                	sd	s6,16(sp)
   1161a:	e45e                	sd	s7,8(sp)
   1161c:	e062                	sd	s8,0(sp)
   1161e:	e486                	sd	ra,72(sp)
   11620:	e0a2                	sd	s0,64(sp)
   11622:	fc26                	sd	s1,56(sp)
   11624:	8c2a                	mv	s8,a0
   11626:	8a2e                	mv	s4,a1
   11628:	52050913          	addi	s2,a0,1312
   1162c:	4b01                	li	s6,0
   1162e:	0b000a93          	li	s5,176
   11632:	4b85                	li	s7,1
   11634:	59fd                	li	s3,-1
   11636:	00892783          	lw	a5,8(s2)
   1163a:	01093403          	ld	s0,16(s2)
   1163e:	02f05c63          	blez	a5,11676 <_fwalk_reent+0x68>
   11642:	fff7849b          	addiw	s1,a5,-1
   11646:	1482                	slli	s1,s1,0x20
   11648:	9081                	srli	s1,s1,0x20
   1164a:	0485                	addi	s1,s1,1
   1164c:	035484b3          	mul	s1,s1,s5
   11650:	94a2                	add	s1,s1,s0
   11652:	01045783          	lhu	a5,16(s0)
   11656:	00fbfc63          	bgeu	s7,a5,1166e <_fwalk_reent+0x60>
   1165a:	01241783          	lh	a5,18(s0)
   1165e:	85a2                	mv	a1,s0
   11660:	8562                	mv	a0,s8
   11662:	01378663          	beq	a5,s3,1166e <_fwalk_reent+0x60>
   11666:	9a02                	jalr	s4
   11668:	01656b33          	or	s6,a0,s6
   1166c:	2b01                	sext.w	s6,s6
   1166e:	0b040413          	addi	s0,s0,176
   11672:	fe8490e3          	bne	s1,s0,11652 <_fwalk_reent+0x44>
   11676:	00093903          	ld	s2,0(s2)
   1167a:	fa091ee3          	bnez	s2,11636 <_fwalk_reent+0x28>
   1167e:	60a6                	ld	ra,72(sp)
   11680:	6406                	ld	s0,64(sp)
   11682:	74e2                	ld	s1,56(sp)
   11684:	7942                	ld	s2,48(sp)
   11686:	79a2                	ld	s3,40(sp)
   11688:	7a02                	ld	s4,32(sp)
   1168a:	6ae2                	ld	s5,24(sp)
   1168c:	6ba2                	ld	s7,8(sp)
   1168e:	6c02                	ld	s8,0(sp)
   11690:	855a                	mv	a0,s6
   11692:	6b42                	ld	s6,16(sp)
   11694:	6161                	addi	sp,sp,80
   11696:	8082                	ret

0000000000011698 <__libc_init_array>:
   11698:	1101                	addi	sp,sp,-32
   1169a:	e822                	sd	s0,16(sp)
   1169c:	e04a                	sd	s2,0(sp)
   1169e:	00025437          	lui	s0,0x25
   116a2:	00025937          	lui	s2,0x25
   116a6:	00440793          	addi	a5,s0,4 # 25004 <__preinit_array_end>
   116aa:	00490913          	addi	s2,s2,4 # 25004 <__preinit_array_end>
   116ae:	40f90933          	sub	s2,s2,a5
   116b2:	ec06                	sd	ra,24(sp)
   116b4:	e426                	sd	s1,8(sp)
   116b6:	40395913          	srai	s2,s2,0x3
   116ba:	00090b63          	beqz	s2,116d0 <__libc_init_array+0x38>
   116be:	00440413          	addi	s0,s0,4
   116c2:	4481                	li	s1,0
   116c4:	601c                	ld	a5,0(s0)
   116c6:	0485                	addi	s1,s1,1
   116c8:	0421                	addi	s0,s0,8
   116ca:	9782                	jalr	a5
   116cc:	fe991ce3          	bne	s2,s1,116c4 <__libc_init_array+0x2c>
   116d0:	00025437          	lui	s0,0x25
   116d4:	00025937          	lui	s2,0x25
   116d8:	00840793          	addi	a5,s0,8 # 25008 <__init_array_start>
   116dc:	01890913          	addi	s2,s2,24 # 25018 <__do_global_dtors_aux_fini_array_entry>
   116e0:	40f90933          	sub	s2,s2,a5
   116e4:	40395913          	srai	s2,s2,0x3
   116e8:	00090b63          	beqz	s2,116fe <__libc_init_array+0x66>
   116ec:	00840413          	addi	s0,s0,8
   116f0:	4481                	li	s1,0
   116f2:	601c                	ld	a5,0(s0)
   116f4:	0485                	addi	s1,s1,1
   116f6:	0421                	addi	s0,s0,8
   116f8:	9782                	jalr	a5
   116fa:	fe991ce3          	bne	s2,s1,116f2 <__libc_init_array+0x5a>
   116fe:	60e2                	ld	ra,24(sp)
   11700:	6442                	ld	s0,16(sp)
   11702:	64a2                	ld	s1,8(sp)
   11704:	6902                	ld	s2,0(sp)
   11706:	6105                	addi	sp,sp,32
   11708:	8082                	ret

000000000001170a <__smakebuf_r>:
   1170a:	0105d783          	lhu	a5,16(a1)
   1170e:	7135                	addi	sp,sp,-160
   11710:	e922                	sd	s0,144(sp)
   11712:	ed06                	sd	ra,152(sp)
   11714:	e526                	sd	s1,136(sp)
   11716:	e14a                	sd	s2,128(sp)
   11718:	fcce                	sd	s3,120(sp)
   1171a:	f8d2                	sd	s4,112(sp)
   1171c:	0027f713          	andi	a4,a5,2
   11720:	842e                	mv	s0,a1
   11722:	cf19                	beqz	a4,11740 <__smakebuf_r+0x36>
   11724:	07758793          	addi	a5,a1,119
   11728:	e19c                	sd	a5,0(a1)
   1172a:	ed9c                	sd	a5,24(a1)
   1172c:	4785                	li	a5,1
   1172e:	d19c                	sw	a5,32(a1)
   11730:	60ea                	ld	ra,152(sp)
   11732:	644a                	ld	s0,144(sp)
   11734:	64aa                	ld	s1,136(sp)
   11736:	690a                	ld	s2,128(sp)
   11738:	79e6                	ld	s3,120(sp)
   1173a:	7a46                	ld	s4,112(sp)
   1173c:	610d                	addi	sp,sp,160
   1173e:	8082                	ret
   11740:	01259583          	lh	a1,18(a1)
   11744:	84aa                	mv	s1,a0
   11746:	0605c863          	bltz	a1,117b6 <__smakebuf_r+0xac>
   1174a:	0030                	addi	a2,sp,8
   1174c:	d57ff0ef          	jal	ra,114a2 <_fstat_r>
   11750:	06054163          	bltz	a0,117b2 <__smakebuf_r+0xa8>
   11754:	4932                	lw	s2,12(sp)
   11756:	67bd                	lui	a5,0xf
   11758:	40000a13          	li	s4,1024
   1175c:	00f97933          	and	s2,s2,a5
   11760:	6789                	lui	a5,0x2
   11762:	40f90933          	sub	s2,s2,a5
   11766:	6785                	lui	a5,0x1
   11768:	00193913          	seqz	s2,s2
   1176c:	80078993          	addi	s3,a5,-2048 # 800 <register_fini-0xf8b0>
   11770:	85d2                	mv	a1,s4
   11772:	8526                	mv	a0,s1
   11774:	12c000ef          	jal	ra,118a0 <_malloc_r>
   11778:	01041783          	lh	a5,16(s0)
   1177c:	c939                	beqz	a0,117d2 <__smakebuf_r+0xc8>
   1177e:	6745                	lui	a4,0x11
   11780:	a4470713          	addi	a4,a4,-1468 # 10a44 <_cleanup_r>
   11784:	ecb8                	sd	a4,88(s1)
   11786:	0807e793          	ori	a5,a5,128
   1178a:	00f41823          	sh	a5,16(s0)
   1178e:	e008                	sd	a0,0(s0)
   11790:	ec08                	sd	a0,24(s0)
   11792:	03442023          	sw	s4,32(s0)
   11796:	06091163          	bnez	s2,117f8 <__smakebuf_r+0xee>
   1179a:	0137e7b3          	or	a5,a5,s3
   1179e:	60ea                	ld	ra,152(sp)
   117a0:	00f41823          	sh	a5,16(s0)
   117a4:	644a                	ld	s0,144(sp)
   117a6:	64aa                	ld	s1,136(sp)
   117a8:	690a                	ld	s2,128(sp)
   117aa:	79e6                	ld	s3,120(sp)
   117ac:	7a46                	ld	s4,112(sp)
   117ae:	610d                	addi	sp,sp,160
   117b0:	8082                	ret
   117b2:	01045783          	lhu	a5,16(s0)
   117b6:	0807f793          	andi	a5,a5,128
   117ba:	4901                	li	s2,0
   117bc:	cb95                	beqz	a5,117f0 <__smakebuf_r+0xe6>
   117be:	04000a13          	li	s4,64
   117c2:	85d2                	mv	a1,s4
   117c4:	8526                	mv	a0,s1
   117c6:	0da000ef          	jal	ra,118a0 <_malloc_r>
   117ca:	01041783          	lh	a5,16(s0)
   117ce:	4981                	li	s3,0
   117d0:	f55d                	bnez	a0,1177e <__smakebuf_r+0x74>
   117d2:	2007f713          	andi	a4,a5,512
   117d6:	ff29                	bnez	a4,11730 <__smakebuf_r+0x26>
   117d8:	9bf1                	andi	a5,a5,-4
   117da:	0027e793          	ori	a5,a5,2
   117de:	07740713          	addi	a4,s0,119
   117e2:	00f41823          	sh	a5,16(s0)
   117e6:	4785                	li	a5,1
   117e8:	e018                	sd	a4,0(s0)
   117ea:	ec18                	sd	a4,24(s0)
   117ec:	d01c                	sw	a5,32(s0)
   117ee:	b789                	j	11730 <__smakebuf_r+0x26>
   117f0:	40000a13          	li	s4,1024
   117f4:	4981                	li	s3,0
   117f6:	bfad                	j	11770 <__smakebuf_r+0x66>
   117f8:	01241583          	lh	a1,18(s0)
   117fc:	8526                	mv	a0,s1
   117fe:	666050ef          	jal	ra,16e64 <_isatty_r>
   11802:	e501                	bnez	a0,1180a <__smakebuf_r+0x100>
   11804:	01041783          	lh	a5,16(s0)
   11808:	bf49                	j	1179a <__smakebuf_r+0x90>
   1180a:	01045783          	lhu	a5,16(s0)
   1180e:	9bf1                	andi	a5,a5,-4
   11810:	0017e793          	ori	a5,a5,1
   11814:	0107979b          	slliw	a5,a5,0x10
   11818:	4107d79b          	sraiw	a5,a5,0x10
   1181c:	bfbd                	j	1179a <__smakebuf_r+0x90>

000000000001181e <__swhatbuf_r>:
   1181e:	7175                	addi	sp,sp,-144
   11820:	e122                	sd	s0,128(sp)
   11822:	842e                	mv	s0,a1
   11824:	01259583          	lh	a1,18(a1)
   11828:	fca6                	sd	s1,120(sp)
   1182a:	f8ca                	sd	s2,112(sp)
   1182c:	e506                	sd	ra,136(sp)
   1182e:	84b2                	mv	s1,a2
   11830:	8936                	mv	s2,a3
   11832:	0205cc63          	bltz	a1,1186a <__swhatbuf_r+0x4c>
   11836:	0030                	addi	a2,sp,8
   11838:	c6bff0ef          	jal	ra,114a2 <_fstat_r>
   1183c:	02054763          	bltz	a0,1186a <__swhatbuf_r+0x4c>
   11840:	47b2                	lw	a5,12(sp)
   11842:	673d                	lui	a4,0xf
   11844:	60aa                	ld	ra,136(sp)
   11846:	8ff9                	and	a5,a5,a4
   11848:	6709                	lui	a4,0x2
   1184a:	8f99                	sub	a5,a5,a4
   1184c:	640a                	ld	s0,128(sp)
   1184e:	0017b793          	seqz	a5,a5
   11852:	00f92023          	sw	a5,0(s2)
   11856:	40000793          	li	a5,1024
   1185a:	e09c                	sd	a5,0(s1)
   1185c:	6505                	lui	a0,0x1
   1185e:	74e6                	ld	s1,120(sp)
   11860:	7946                	ld	s2,112(sp)
   11862:	80050513          	addi	a0,a0,-2048 # 800 <register_fini-0xf8b0>
   11866:	6149                	addi	sp,sp,144
   11868:	8082                	ret
   1186a:	01041783          	lh	a5,16(s0)
   1186e:	00092023          	sw	zero,0(s2)
   11872:	0807f793          	andi	a5,a5,128
   11876:	cb99                	beqz	a5,1188c <__swhatbuf_r+0x6e>
   11878:	60aa                	ld	ra,136(sp)
   1187a:	640a                	ld	s0,128(sp)
   1187c:	04000793          	li	a5,64
   11880:	e09c                	sd	a5,0(s1)
   11882:	7946                	ld	s2,112(sp)
   11884:	74e6                	ld	s1,120(sp)
   11886:	4501                	li	a0,0
   11888:	6149                	addi	sp,sp,144
   1188a:	8082                	ret
   1188c:	60aa                	ld	ra,136(sp)
   1188e:	640a                	ld	s0,128(sp)
   11890:	40000793          	li	a5,1024
   11894:	e09c                	sd	a5,0(s1)
   11896:	7946                	ld	s2,112(sp)
   11898:	74e6                	ld	s1,120(sp)
   1189a:	4501                	li	a0,0
   1189c:	6149                	addi	sp,sp,144
   1189e:	8082                	ret

00000000000118a0 <_malloc_r>:
   118a0:	711d                	addi	sp,sp,-96
   118a2:	e4a6                	sd	s1,72(sp)
   118a4:	e0ca                	sd	s2,64(sp)
   118a6:	ec86                	sd	ra,88(sp)
   118a8:	e8a2                	sd	s0,80(sp)
   118aa:	fc4e                	sd	s3,56(sp)
   118ac:	f852                	sd	s4,48(sp)
   118ae:	f456                	sd	s5,40(sp)
   118b0:	f05a                	sd	s6,32(sp)
   118b2:	ec5e                	sd	s7,24(sp)
   118b4:	e862                	sd	s8,16(sp)
   118b6:	e466                	sd	s9,8(sp)
   118b8:	01758493          	addi	s1,a1,23
   118bc:	02e00793          	li	a5,46
   118c0:	892a                	mv	s2,a0
   118c2:	0497e863          	bltu	a5,s1,11912 <_malloc_r+0x72>
   118c6:	02000793          	li	a5,32
   118ca:	1eb7e663          	bltu	a5,a1,11ab6 <_malloc_r+0x216>
   118ce:	6a6000ef          	jal	ra,11f74 <__malloc_lock>
   118d2:	02000493          	li	s1,32
   118d6:	05000793          	li	a5,80
   118da:	4611                	li	a2,4
   118dc:	000259b7          	lui	s3,0x25
   118e0:	7b098993          	addi	s3,s3,1968 # 257b0 <__malloc_av_>
   118e4:	97ce                	add	a5,a5,s3
   118e6:	6780                	ld	s0,8(a5)
   118e8:	ff078713          	addi	a4,a5,-16
   118ec:	1ee40663          	beq	s0,a4,11ad8 <_malloc_r+0x238>
   118f0:	641c                	ld	a5,8(s0)
   118f2:	6c14                	ld	a3,24(s0)
   118f4:	6810                	ld	a2,16(s0)
   118f6:	9bf1                	andi	a5,a5,-4
   118f8:	97a2                	add	a5,a5,s0
   118fa:	6798                	ld	a4,8(a5)
   118fc:	ee14                	sd	a3,24(a2)
   118fe:	ea90                	sd	a2,16(a3)
   11900:	00176713          	ori	a4,a4,1
   11904:	854a                	mv	a0,s2
   11906:	e798                	sd	a4,8(a5)
   11908:	66e000ef          	jal	ra,11f76 <__malloc_unlock>
   1190c:	01040513          	addi	a0,s0,16
   11910:	a27d                	j	11abe <_malloc_r+0x21e>
   11912:	800007b7          	lui	a5,0x80000
   11916:	98c1                	andi	s1,s1,-16
   11918:	fff7c793          	not	a5,a5
   1191c:	1897ed63          	bltu	a5,s1,11ab6 <_malloc_r+0x216>
   11920:	18b4eb63          	bltu	s1,a1,11ab6 <_malloc_r+0x216>
   11924:	650000ef          	jal	ra,11f74 <__malloc_lock>
   11928:	1f700793          	li	a5,503
   1192c:	3a97f563          	bgeu	a5,s1,11cd6 <_malloc_r+0x436>
   11930:	0094d793          	srli	a5,s1,0x9
   11934:	28078163          	beqz	a5,11bb6 <_malloc_r+0x316>
   11938:	4711                	li	a4,4
   1193a:	30f76563          	bltu	a4,a5,11c44 <_malloc_r+0x3a4>
   1193e:	0064d793          	srli	a5,s1,0x6
   11942:	0397861b          	addiw	a2,a5,57
   11946:	0016169b          	slliw	a3,a2,0x1
   1194a:	0387851b          	addiw	a0,a5,56
   1194e:	068e                	slli	a3,a3,0x3
   11950:	000259b7          	lui	s3,0x25
   11954:	7b098993          	addi	s3,s3,1968 # 257b0 <__malloc_av_>
   11958:	96ce                	add	a3,a3,s3
   1195a:	6680                	ld	s0,8(a3)
   1195c:	16c1                	addi	a3,a3,-16
   1195e:	18868163          	beq	a3,s0,11ae0 <_malloc_r+0x240>
   11962:	45fd                	li	a1,31
   11964:	a031                	j	11970 <_malloc_r+0xd0>
   11966:	28075963          	bgez	a4,11bf8 <_malloc_r+0x358>
   1196a:	6c00                	ld	s0,24(s0)
   1196c:	16868a63          	beq	a3,s0,11ae0 <_malloc_r+0x240>
   11970:	641c                	ld	a5,8(s0)
   11972:	9bf1                	andi	a5,a5,-4
   11974:	40978733          	sub	a4,a5,s1
   11978:	fee5d7e3          	bge	a1,a4,11966 <_malloc_r+0xc6>
   1197c:	0209b403          	ld	s0,32(s3)
   11980:	00025837          	lui	a6,0x25
   11984:	7c080813          	addi	a6,a6,1984 # 257c0 <__malloc_av_+0x10>
   11988:	862a                	mv	a2,a0
   1198a:	17041363          	bne	s0,a6,11af0 <_malloc_r+0x250>
   1198e:	0089b783          	ld	a5,8(s3)
   11992:	4026571b          	sraiw	a4,a2,0x2
   11996:	4585                	li	a1,1
   11998:	00e595b3          	sll	a1,a1,a4
   1199c:	1ab7fa63          	bgeu	a5,a1,11b50 <_malloc_r+0x2b0>
   119a0:	0109b403          	ld	s0,16(s3)
   119a4:	00843a03          	ld	s4,8(s0)
   119a8:	ffca7a93          	andi	s5,s4,-4
   119ac:	009ae763          	bltu	s5,s1,119ba <_malloc_r+0x11a>
   119b0:	409a87b3          	sub	a5,s5,s1
   119b4:	477d                	li	a4,31
   119b6:	22f74263          	blt	a4,a5,11bda <_malloc_r+0x33a>
   119ba:	8e01ba03          	ld	s4,-1824(gp) # 26260 <__malloc_top_pad>
   119be:	8b81b703          	ld	a4,-1864(gp) # 26238 <__malloc_sbrk_base>
   119c2:	57fd                	li	a5,-1
   119c4:	01540c33          	add	s8,s0,s5
   119c8:	9a26                	add	s4,s4,s1
   119ca:	3af70463          	beq	a4,a5,11d72 <_malloc_r+0x4d2>
   119ce:	6785                	lui	a5,0x1
   119d0:	07fd                	addi	a5,a5,31
   119d2:	9a3e                	add	s4,s4,a5
   119d4:	77fd                	lui	a5,0xfffff
   119d6:	00fa7a33          	and	s4,s4,a5
   119da:	85d2                	mv	a1,s4
   119dc:	854a                	mv	a0,s2
   119de:	215000ef          	jal	ra,123f2 <_sbrk_r>
   119e2:	57fd                	li	a5,-1
   119e4:	8b2a                	mv	s6,a0
   119e6:	30f50d63          	beq	a0,a5,11d00 <_malloc_r+0x460>
   119ea:	31856963          	bltu	a0,s8,11cfc <_malloc_r+0x45c>
   119ee:	0046abb7          	lui	s7,0x46a
   119f2:	4b8b8b93          	addi	s7,s7,1208 # 46a4b8 <__malloc_current_mallinfo>
   119f6:	000ba703          	lw	a4,0(s7)
   119fa:	014707bb          	addw	a5,a4,s4
   119fe:	00fba023          	sw	a5,0(s7)
   11a02:	86be                	mv	a3,a5
   11a04:	40ac0263          	beq	s8,a0,11e08 <_malloc_r+0x568>
   11a08:	8b81b703          	ld	a4,-1864(gp) # 26238 <__malloc_sbrk_base>
   11a0c:	57fd                	li	a5,-1
   11a0e:	40f70963          	beq	a4,a5,11e20 <_malloc_r+0x580>
   11a12:	418b07b3          	sub	a5,s6,s8
   11a16:	9fb5                	addw	a5,a5,a3
   11a18:	00fba023          	sw	a5,0(s7)
   11a1c:	00fb7c13          	andi	s8,s6,15
   11a20:	360c0763          	beqz	s8,11d8e <_malloc_r+0x4ee>
   11a24:	6705                	lui	a4,0x1
   11a26:	418b0b33          	sub	s6,s6,s8
   11a2a:	01070793          	addi	a5,a4,16 # 1010 <register_fini-0xf0a0>
   11a2e:	0b41                	addi	s6,s6,16
   11a30:	418787b3          	sub	a5,a5,s8
   11a34:	014b0cb3          	add	s9,s6,s4
   11a38:	41978a33          	sub	s4,a5,s9
   11a3c:	177d                	addi	a4,a4,-1
   11a3e:	00ea7a33          	and	s4,s4,a4
   11a42:	85d2                	mv	a1,s4
   11a44:	854a                	mv	a0,s2
   11a46:	1ad000ef          	jal	ra,123f2 <_sbrk_r>
   11a4a:	57fd                	li	a5,-1
   11a4c:	40f50f63          	beq	a0,a5,11e6a <_malloc_r+0x5ca>
   11a50:	41650533          	sub	a0,a0,s6
   11a54:	000a071b          	sext.w	a4,s4
   11a58:	9a2a                	add	s4,s4,a0
   11a5a:	000ba783          	lw	a5,0(s7)
   11a5e:	0169b823          	sd	s6,16(s3)
   11a62:	001a6a13          	ori	s4,s4,1
   11a66:	9fb9                	addw	a5,a5,a4
   11a68:	00fba023          	sw	a5,0(s7)
   11a6c:	014b3423          	sd	s4,8(s6)
   11a70:	3b340b63          	beq	s0,s3,11e26 <_malloc_r+0x586>
   11a74:	467d                	li	a2,31
   11a76:	3b567a63          	bgeu	a2,s5,11e2a <_malloc_r+0x58a>
   11a7a:	6414                	ld	a3,8(s0)
   11a7c:	fe8a8713          	addi	a4,s5,-24
   11a80:	9b41                	andi	a4,a4,-16
   11a82:	8a85                	andi	a3,a3,1
   11a84:	8ed9                	or	a3,a3,a4
   11a86:	e414                	sd	a3,8(s0)
   11a88:	45a5                	li	a1,9
   11a8a:	00e406b3          	add	a3,s0,a4
   11a8e:	e68c                	sd	a1,8(a3)
   11a90:	ea8c                	sd	a1,16(a3)
   11a92:	3ee66363          	bltu	a2,a4,11e78 <_malloc_r+0x5d8>
   11a96:	008b3a03          	ld	s4,8(s6)
   11a9a:	845a                	mv	s0,s6
   11a9c:	8d81b683          	ld	a3,-1832(gp) # 26258 <__malloc_max_sbrked_mem>
   11aa0:	00f6f463          	bgeu	a3,a5,11aa8 <_malloc_r+0x208>
   11aa4:	8cf1bc23          	sd	a5,-1832(gp) # 26258 <__malloc_max_sbrked_mem>
   11aa8:	8d01b683          	ld	a3,-1840(gp) # 26250 <__malloc_max_total_mem>
   11aac:	24f6fe63          	bgeu	a3,a5,11d08 <_malloc_r+0x468>
   11ab0:	8cf1b823          	sd	a5,-1840(gp) # 26250 <__malloc_max_total_mem>
   11ab4:	ac91                	j	11d08 <_malloc_r+0x468>
   11ab6:	47b1                	li	a5,12
   11ab8:	00f92023          	sw	a5,0(s2)
   11abc:	4501                	li	a0,0
   11abe:	60e6                	ld	ra,88(sp)
   11ac0:	6446                	ld	s0,80(sp)
   11ac2:	64a6                	ld	s1,72(sp)
   11ac4:	6906                	ld	s2,64(sp)
   11ac6:	79e2                	ld	s3,56(sp)
   11ac8:	7a42                	ld	s4,48(sp)
   11aca:	7aa2                	ld	s5,40(sp)
   11acc:	7b02                	ld	s6,32(sp)
   11ace:	6be2                	ld	s7,24(sp)
   11ad0:	6c42                	ld	s8,16(sp)
   11ad2:	6ca2                	ld	s9,8(sp)
   11ad4:	6125                	addi	sp,sp,96
   11ad6:	8082                	ret
   11ad8:	6f80                	ld	s0,24(a5)
   11ada:	2609                	addiw	a2,a2,2
   11adc:	e0879ae3          	bne	a5,s0,118f0 <_malloc_r+0x50>
   11ae0:	0209b403          	ld	s0,32(s3)
   11ae4:	00025837          	lui	a6,0x25
   11ae8:	7c080813          	addi	a6,a6,1984 # 257c0 <__malloc_av_+0x10>
   11aec:	eb0401e3          	beq	s0,a6,1198e <_malloc_r+0xee>
   11af0:	641c                	ld	a5,8(s0)
   11af2:	46fd                	li	a3,31
   11af4:	9bf1                	andi	a5,a5,-4
   11af6:	40978733          	sub	a4,a5,s1
   11afa:	1ae6c763          	blt	a3,a4,11ca8 <_malloc_r+0x408>
   11afe:	0309b423          	sd	a6,40(s3)
   11b02:	0309b023          	sd	a6,32(s3)
   11b06:	0a075f63          	bgez	a4,11bc4 <_malloc_r+0x324>
   11b0a:	1ff00713          	li	a4,511
   11b0e:	0ef76863          	bltu	a4,a5,11bfe <_malloc_r+0x35e>
   11b12:	838d                	srli	a5,a5,0x3
   11b14:	0017871b          	addiw	a4,a5,1
   11b18:	0017171b          	slliw	a4,a4,0x1
   11b1c:	070e                	slli	a4,a4,0x3
   11b1e:	0089b503          	ld	a0,8(s3)
   11b22:	974e                	add	a4,a4,s3
   11b24:	630c                	ld	a1,0(a4)
   11b26:	4027d69b          	sraiw	a3,a5,0x2
   11b2a:	4785                	li	a5,1
   11b2c:	00d797b3          	sll	a5,a5,a3
   11b30:	8fc9                	or	a5,a5,a0
   11b32:	ff070693          	addi	a3,a4,-16
   11b36:	ec14                	sd	a3,24(s0)
   11b38:	e80c                	sd	a1,16(s0)
   11b3a:	00f9b423          	sd	a5,8(s3)
   11b3e:	e300                	sd	s0,0(a4)
   11b40:	ed80                	sd	s0,24(a1)
   11b42:	4026571b          	sraiw	a4,a2,0x2
   11b46:	4585                	li	a1,1
   11b48:	00e595b3          	sll	a1,a1,a4
   11b4c:	e4b7eae3          	bltu	a5,a1,119a0 <_malloc_r+0x100>
   11b50:	00f5f733          	and	a4,a1,a5
   11b54:	ef01                	bnez	a4,11b6c <_malloc_r+0x2cc>
   11b56:	0586                	slli	a1,a1,0x1
   11b58:	9a71                	andi	a2,a2,-4
   11b5a:	00f5f733          	and	a4,a1,a5
   11b5e:	2611                	addiw	a2,a2,4
   11b60:	e711                	bnez	a4,11b6c <_malloc_r+0x2cc>
   11b62:	0586                	slli	a1,a1,0x1
   11b64:	00f5f733          	and	a4,a1,a5
   11b68:	2611                	addiw	a2,a2,4
   11b6a:	df65                	beqz	a4,11b62 <_malloc_r+0x2c2>
   11b6c:	48fd                	li	a7,31
   11b6e:	0016031b          	addiw	t1,a2,1
   11b72:	0013131b          	slliw	t1,t1,0x1
   11b76:	030e                	slli	t1,t1,0x3
   11b78:	1341                	addi	t1,t1,-16
   11b7a:	934e                	add	t1,t1,s3
   11b7c:	851a                	mv	a0,t1
   11b7e:	6d1c                	ld	a5,24(a0)
   11b80:	8e32                	mv	t3,a2
   11b82:	0ef50263          	beq	a0,a5,11c66 <_malloc_r+0x3c6>
   11b86:	6798                	ld	a4,8(a5)
   11b88:	843e                	mv	s0,a5
   11b8a:	6f9c                	ld	a5,24(a5)
   11b8c:	9b71                	andi	a4,a4,-4
   11b8e:	409706b3          	sub	a3,a4,s1
   11b92:	0ed8c163          	blt	a7,a3,11c74 <_malloc_r+0x3d4>
   11b96:	fe06c6e3          	bltz	a3,11b82 <_malloc_r+0x2e2>
   11b9a:	9722                	add	a4,a4,s0
   11b9c:	6714                	ld	a3,8(a4)
   11b9e:	6810                	ld	a2,16(s0)
   11ba0:	854a                	mv	a0,s2
   11ba2:	0016e693          	ori	a3,a3,1
   11ba6:	e714                	sd	a3,8(a4)
   11ba8:	ee1c                	sd	a5,24(a2)
   11baa:	eb90                	sd	a2,16(a5)
   11bac:	3ca000ef          	jal	ra,11f76 <__malloc_unlock>
   11bb0:	01040513          	addi	a0,s0,16
   11bb4:	b729                	j	11abe <_malloc_r+0x21e>
   11bb6:	40000693          	li	a3,1024
   11bba:	04000613          	li	a2,64
   11bbe:	03f00513          	li	a0,63
   11bc2:	b379                	j	11950 <_malloc_r+0xb0>
   11bc4:	97a2                	add	a5,a5,s0
   11bc6:	6798                	ld	a4,8(a5)
   11bc8:	854a                	mv	a0,s2
   11bca:	00176713          	ori	a4,a4,1
   11bce:	e798                	sd	a4,8(a5)
   11bd0:	3a6000ef          	jal	ra,11f76 <__malloc_unlock>
   11bd4:	01040513          	addi	a0,s0,16
   11bd8:	b5dd                	j	11abe <_malloc_r+0x21e>
   11bda:	0014e713          	ori	a4,s1,1
   11bde:	e418                	sd	a4,8(s0)
   11be0:	94a2                	add	s1,s1,s0
   11be2:	0099b823          	sd	s1,16(s3)
   11be6:	0017e793          	ori	a5,a5,1
   11bea:	854a                	mv	a0,s2
   11bec:	e49c                	sd	a5,8(s1)
   11bee:	388000ef          	jal	ra,11f76 <__malloc_unlock>
   11bf2:	01040513          	addi	a0,s0,16
   11bf6:	b5e1                	j	11abe <_malloc_r+0x21e>
   11bf8:	6c14                	ld	a3,24(s0)
   11bfa:	6810                	ld	a2,16(s0)
   11bfc:	b9f5                	j	118f8 <_malloc_r+0x58>
   11bfe:	0097d713          	srli	a4,a5,0x9
   11c02:	4691                	li	a3,4
   11c04:	0ee6f263          	bgeu	a3,a4,11ce8 <_malloc_r+0x448>
   11c08:	46d1                	li	a3,20
   11c0a:	1ae6e863          	bltu	a3,a4,11dba <_malloc_r+0x51a>
   11c0e:	05c7059b          	addiw	a1,a4,92
   11c12:	0015959b          	slliw	a1,a1,0x1
   11c16:	05b7069b          	addiw	a3,a4,91
   11c1a:	058e                	slli	a1,a1,0x3
   11c1c:	95ce                	add	a1,a1,s3
   11c1e:	6198                	ld	a4,0(a1)
   11c20:	15c1                	addi	a1,a1,-16
   11c22:	14e58b63          	beq	a1,a4,11d78 <_malloc_r+0x4d8>
   11c26:	6714                	ld	a3,8(a4)
   11c28:	9af1                	andi	a3,a3,-4
   11c2a:	00d7f563          	bgeu	a5,a3,11c34 <_malloc_r+0x394>
   11c2e:	6b18                	ld	a4,16(a4)
   11c30:	fee59be3          	bne	a1,a4,11c26 <_malloc_r+0x386>
   11c34:	6f0c                	ld	a1,24(a4)
   11c36:	0089b783          	ld	a5,8(s3)
   11c3a:	ec0c                	sd	a1,24(s0)
   11c3c:	e818                	sd	a4,16(s0)
   11c3e:	e980                	sd	s0,16(a1)
   11c40:	ef00                	sd	s0,24(a4)
   11c42:	b701                	j	11b42 <_malloc_r+0x2a2>
   11c44:	4751                	li	a4,20
   11c46:	0cf77f63          	bgeu	a4,a5,11d24 <_malloc_r+0x484>
   11c4a:	05400713          	li	a4,84
   11c4e:	18f76463          	bltu	a4,a5,11dd6 <_malloc_r+0x536>
   11c52:	00c4d793          	srli	a5,s1,0xc
   11c56:	06f7861b          	addiw	a2,a5,111
   11c5a:	0016169b          	slliw	a3,a2,0x1
   11c5e:	06e7851b          	addiw	a0,a5,110
   11c62:	068e                	slli	a3,a3,0x3
   11c64:	b1f5                	j	11950 <_malloc_r+0xb0>
   11c66:	2e05                	addiw	t3,t3,1
   11c68:	003e7793          	andi	a5,t3,3
   11c6c:	0541                	addi	a0,a0,16
   11c6e:	cbe1                	beqz	a5,11d3e <_malloc_r+0x49e>
   11c70:	6d1c                	ld	a5,24(a0)
   11c72:	bf01                	j	11b82 <_malloc_r+0x2e2>
   11c74:	6810                	ld	a2,16(s0)
   11c76:	0014e593          	ori	a1,s1,1
   11c7a:	e40c                	sd	a1,8(s0)
   11c7c:	ee1c                	sd	a5,24(a2)
   11c7e:	eb90                	sd	a2,16(a5)
   11c80:	94a2                	add	s1,s1,s0
   11c82:	0299b423          	sd	s1,40(s3)
   11c86:	0299b023          	sd	s1,32(s3)
   11c8a:	0016e793          	ori	a5,a3,1
   11c8e:	0104bc23          	sd	a6,24(s1)
   11c92:	0104b823          	sd	a6,16(s1)
   11c96:	e49c                	sd	a5,8(s1)
   11c98:	9722                	add	a4,a4,s0
   11c9a:	854a                	mv	a0,s2
   11c9c:	e314                	sd	a3,0(a4)
   11c9e:	2d8000ef          	jal	ra,11f76 <__malloc_unlock>
   11ca2:	01040513          	addi	a0,s0,16
   11ca6:	bd21                	j	11abe <_malloc_r+0x21e>
   11ca8:	0014e693          	ori	a3,s1,1
   11cac:	e414                	sd	a3,8(s0)
   11cae:	94a2                	add	s1,s1,s0
   11cb0:	0299b423          	sd	s1,40(s3)
   11cb4:	0299b023          	sd	s1,32(s3)
   11cb8:	00176693          	ori	a3,a4,1
   11cbc:	0104bc23          	sd	a6,24(s1)
   11cc0:	0104b823          	sd	a6,16(s1)
   11cc4:	e494                	sd	a3,8(s1)
   11cc6:	97a2                	add	a5,a5,s0
   11cc8:	854a                	mv	a0,s2
   11cca:	e398                	sd	a4,0(a5)
   11ccc:	2aa000ef          	jal	ra,11f76 <__malloc_unlock>
   11cd0:	01040513          	addi	a0,s0,16
   11cd4:	b3ed                	j	11abe <_malloc_r+0x21e>
   11cd6:	0034d613          	srli	a2,s1,0x3
   11cda:	0016079b          	addiw	a5,a2,1
   11cde:	0017979b          	slliw	a5,a5,0x1
   11ce2:	2601                	sext.w	a2,a2
   11ce4:	078e                	slli	a5,a5,0x3
   11ce6:	bedd                	j	118dc <_malloc_r+0x3c>
   11ce8:	0067d713          	srli	a4,a5,0x6
   11cec:	0397059b          	addiw	a1,a4,57
   11cf0:	0015959b          	slliw	a1,a1,0x1
   11cf4:	0387069b          	addiw	a3,a4,56
   11cf8:	058e                	slli	a1,a1,0x3
   11cfa:	b70d                	j	11c1c <_malloc_r+0x37c>
   11cfc:	0f340b63          	beq	s0,s3,11df2 <_malloc_r+0x552>
   11d00:	0109b403          	ld	s0,16(s3)
   11d04:	00843a03          	ld	s4,8(s0)
   11d08:	ffca7a13          	andi	s4,s4,-4
   11d0c:	409a07b3          	sub	a5,s4,s1
   11d10:	009a6563          	bltu	s4,s1,11d1a <_malloc_r+0x47a>
   11d14:	477d                	li	a4,31
   11d16:	ecf742e3          	blt	a4,a5,11bda <_malloc_r+0x33a>
   11d1a:	854a                	mv	a0,s2
   11d1c:	25a000ef          	jal	ra,11f76 <__malloc_unlock>
   11d20:	4501                	li	a0,0
   11d22:	bb71                	j	11abe <_malloc_r+0x21e>
   11d24:	05c7861b          	addiw	a2,a5,92
   11d28:	0016169b          	slliw	a3,a2,0x1
   11d2c:	05b7851b          	addiw	a0,a5,91
   11d30:	068e                	slli	a3,a3,0x3
   11d32:	b939                	j	11950 <_malloc_r+0xb0>
   11d34:	01033783          	ld	a5,16(t1)
   11d38:	367d                	addiw	a2,a2,-1
   11d3a:	18679563          	bne	a5,t1,11ec4 <_malloc_r+0x624>
   11d3e:	00367793          	andi	a5,a2,3
   11d42:	1341                	addi	t1,t1,-16
   11d44:	fbe5                	bnez	a5,11d34 <_malloc_r+0x494>
   11d46:	0089b703          	ld	a4,8(s3)
   11d4a:	fff5c793          	not	a5,a1
   11d4e:	8ff9                	and	a5,a5,a4
   11d50:	00f9b423          	sd	a5,8(s3)
   11d54:	0586                	slli	a1,a1,0x1
   11d56:	c4b7e5e3          	bltu	a5,a1,119a0 <_malloc_r+0x100>
   11d5a:	c40583e3          	beqz	a1,119a0 <_malloc_r+0x100>
   11d5e:	00f5f733          	and	a4,a1,a5
   11d62:	e711                	bnez	a4,11d6e <_malloc_r+0x4ce>
   11d64:	0586                	slli	a1,a1,0x1
   11d66:	00f5f733          	and	a4,a1,a5
   11d6a:	2e11                	addiw	t3,t3,4
   11d6c:	df65                	beqz	a4,11d64 <_malloc_r+0x4c4>
   11d6e:	8672                	mv	a2,t3
   11d70:	bbfd                	j	11b6e <_malloc_r+0x2ce>
   11d72:	020a0a13          	addi	s4,s4,32
   11d76:	b195                	j	119da <_malloc_r+0x13a>
   11d78:	0089b503          	ld	a0,8(s3)
   11d7c:	4026d69b          	sraiw	a3,a3,0x2
   11d80:	4785                	li	a5,1
   11d82:	00d797b3          	sll	a5,a5,a3
   11d86:	8fc9                	or	a5,a5,a0
   11d88:	00f9b423          	sd	a5,8(s3)
   11d8c:	b57d                	j	11c3a <_malloc_r+0x39a>
   11d8e:	014b0c33          	add	s8,s6,s4
   11d92:	41800c33          	neg	s8,s8
   11d96:	1c52                	slli	s8,s8,0x34
   11d98:	034c5c13          	srli	s8,s8,0x34
   11d9c:	85e2                	mv	a1,s8
   11d9e:	854a                	mv	a0,s2
   11da0:	652000ef          	jal	ra,123f2 <_sbrk_r>
   11da4:	57fd                	li	a5,-1
   11da6:	4701                	li	a4,0
   11da8:	caf509e3          	beq	a0,a5,11a5a <_malloc_r+0x1ba>
   11dac:	41650533          	sub	a0,a0,s6
   11db0:	000c071b          	sext.w	a4,s8
   11db4:	01850a33          	add	s4,a0,s8
   11db8:	b14d                	j	11a5a <_malloc_r+0x1ba>
   11dba:	05400693          	li	a3,84
   11dbe:	06e6ea63          	bltu	a3,a4,11e32 <_malloc_r+0x592>
   11dc2:	00c7d713          	srli	a4,a5,0xc
   11dc6:	06f7059b          	addiw	a1,a4,111
   11dca:	0015959b          	slliw	a1,a1,0x1
   11dce:	06e7069b          	addiw	a3,a4,110
   11dd2:	058e                	slli	a1,a1,0x3
   11dd4:	b5a1                	j	11c1c <_malloc_r+0x37c>
   11dd6:	15400713          	li	a4,340
   11dda:	06f76a63          	bltu	a4,a5,11e4e <_malloc_r+0x5ae>
   11dde:	00f4d793          	srli	a5,s1,0xf
   11de2:	0787861b          	addiw	a2,a5,120
   11de6:	0016169b          	slliw	a3,a2,0x1
   11dea:	0777851b          	addiw	a0,a5,119
   11dee:	068e                	slli	a3,a3,0x3
   11df0:	b685                	j	11950 <_malloc_r+0xb0>
   11df2:	0046abb7          	lui	s7,0x46a
   11df6:	4b8b8b93          	addi	s7,s7,1208 # 46a4b8 <__malloc_current_mallinfo>
   11dfa:	000ba783          	lw	a5,0(s7)
   11dfe:	014786bb          	addw	a3,a5,s4
   11e02:	00dba023          	sw	a3,0(s7)
   11e06:	b109                	j	11a08 <_malloc_r+0x168>
   11e08:	034c1713          	slli	a4,s8,0x34
   11e0c:	be071ee3          	bnez	a4,11a08 <_malloc_r+0x168>
   11e10:	0109b403          	ld	s0,16(s3)
   11e14:	9a56                	add	s4,s4,s5
   11e16:	001a6a13          	ori	s4,s4,1
   11e1a:	01443423          	sd	s4,8(s0)
   11e1e:	b9bd                	j	11a9c <_malloc_r+0x1fc>
   11e20:	8b61bc23          	sd	s6,-1864(gp) # 26238 <__malloc_sbrk_base>
   11e24:	bee5                	j	11a1c <_malloc_r+0x17c>
   11e26:	845a                	mv	s0,s6
   11e28:	b995                	j	11a9c <_malloc_r+0x1fc>
   11e2a:	4785                	li	a5,1
   11e2c:	00fb3423          	sd	a5,8(s6)
   11e30:	b5ed                	j	11d1a <_malloc_r+0x47a>
   11e32:	15400693          	li	a3,340
   11e36:	04e6ed63          	bltu	a3,a4,11e90 <_malloc_r+0x5f0>
   11e3a:	00f7d713          	srli	a4,a5,0xf
   11e3e:	0787059b          	addiw	a1,a4,120
   11e42:	0015959b          	slliw	a1,a1,0x1
   11e46:	0777069b          	addiw	a3,a4,119
   11e4a:	058e                	slli	a1,a1,0x3
   11e4c:	bbc1                	j	11c1c <_malloc_r+0x37c>
   11e4e:	55400713          	li	a4,1364
   11e52:	04f76d63          	bltu	a4,a5,11eac <_malloc_r+0x60c>
   11e56:	0124d793          	srli	a5,s1,0x12
   11e5a:	07d7861b          	addiw	a2,a5,125
   11e5e:	0016169b          	slliw	a3,a2,0x1
   11e62:	07c7851b          	addiw	a0,a5,124
   11e66:	068e                	slli	a3,a3,0x3
   11e68:	b4e5                	j	11950 <_malloc_r+0xb0>
   11e6a:	1c41                	addi	s8,s8,-16
   11e6c:	018c8a33          	add	s4,s9,s8
   11e70:	416a0a33          	sub	s4,s4,s6
   11e74:	4701                	li	a4,0
   11e76:	b6d5                	j	11a5a <_malloc_r+0x1ba>
   11e78:	01040593          	addi	a1,s0,16
   11e7c:	854a                	mv	a0,s2
   11e7e:	8a2ff0ef          	jal	ra,10f20 <_free_r>
   11e82:	0109b403          	ld	s0,16(s3)
   11e86:	000ba783          	lw	a5,0(s7)
   11e8a:	00843a03          	ld	s4,8(s0)
   11e8e:	b139                	j	11a9c <_malloc_r+0x1fc>
   11e90:	55400693          	li	a3,1364
   11e94:	02e6e363          	bltu	a3,a4,11eba <_malloc_r+0x61a>
   11e98:	0127d713          	srli	a4,a5,0x12
   11e9c:	07d7059b          	addiw	a1,a4,125
   11ea0:	0015959b          	slliw	a1,a1,0x1
   11ea4:	07c7069b          	addiw	a3,a4,124
   11ea8:	058e                	slli	a1,a1,0x3
   11eaa:	bb8d                	j	11c1c <_malloc_r+0x37c>
   11eac:	7f000693          	li	a3,2032
   11eb0:	07f00613          	li	a2,127
   11eb4:	07e00513          	li	a0,126
   11eb8:	bc61                	j	11950 <_malloc_r+0xb0>
   11eba:	7f000593          	li	a1,2032
   11ebe:	07e00693          	li	a3,126
   11ec2:	bba9                	j	11c1c <_malloc_r+0x37c>
   11ec4:	0089b783          	ld	a5,8(s3)
   11ec8:	b571                	j	11d54 <_malloc_r+0x4b4>

0000000000011eca <memset>:
   11eca:	433d                	li	t1,15
   11ecc:	872a                	mv	a4,a0
   11ece:	02c37163          	bgeu	t1,a2,11ef0 <memset+0x26>
   11ed2:	00f77793          	andi	a5,a4,15
   11ed6:	e3c1                	bnez	a5,11f56 <memset+0x8c>
   11ed8:	e1bd                	bnez	a1,11f3e <memset+0x74>
   11eda:	ff067693          	andi	a3,a2,-16
   11ede:	8a3d                	andi	a2,a2,15
   11ee0:	96ba                	add	a3,a3,a4
   11ee2:	e30c                	sd	a1,0(a4)
   11ee4:	e70c                	sd	a1,8(a4)
   11ee6:	0741                	addi	a4,a4,16
   11ee8:	fed76de3          	bltu	a4,a3,11ee2 <memset+0x18>
   11eec:	e211                	bnez	a2,11ef0 <memset+0x26>
   11eee:	8082                	ret
   11ef0:	40c306b3          	sub	a3,t1,a2
   11ef4:	068a                	slli	a3,a3,0x2
   11ef6:	00000297          	auipc	t0,0x0
   11efa:	9696                	add	a3,a3,t0
   11efc:	00a68067          	jr	10(a3) # f00a <register_fini-0x10a6>
   11f00:	00b70723          	sb	a1,14(a4)
   11f04:	00b706a3          	sb	a1,13(a4)
   11f08:	00b70623          	sb	a1,12(a4)
   11f0c:	00b705a3          	sb	a1,11(a4)
   11f10:	00b70523          	sb	a1,10(a4)
   11f14:	00b704a3          	sb	a1,9(a4)
   11f18:	00b70423          	sb	a1,8(a4)
   11f1c:	00b703a3          	sb	a1,7(a4)
   11f20:	00b70323          	sb	a1,6(a4)
   11f24:	00b702a3          	sb	a1,5(a4)
   11f28:	00b70223          	sb	a1,4(a4)
   11f2c:	00b701a3          	sb	a1,3(a4)
   11f30:	00b70123          	sb	a1,2(a4)
   11f34:	00b700a3          	sb	a1,1(a4)
   11f38:	00b70023          	sb	a1,0(a4)
   11f3c:	8082                	ret
   11f3e:	0ff5f593          	andi	a1,a1,255
   11f42:	00859693          	slli	a3,a1,0x8
   11f46:	8dd5                	or	a1,a1,a3
   11f48:	01059693          	slli	a3,a1,0x10
   11f4c:	8dd5                	or	a1,a1,a3
   11f4e:	02059693          	slli	a3,a1,0x20
   11f52:	8dd5                	or	a1,a1,a3
   11f54:	b759                	j	11eda <memset+0x10>
   11f56:	00279693          	slli	a3,a5,0x2
   11f5a:	00000297          	auipc	t0,0x0
   11f5e:	9696                	add	a3,a3,t0
   11f60:	8286                	mv	t0,ra
   11f62:	fa2680e7          	jalr	-94(a3)
   11f66:	8096                	mv	ra,t0
   11f68:	17c1                	addi	a5,a5,-16
   11f6a:	8f1d                	sub	a4,a4,a5
   11f6c:	963e                	add	a2,a2,a5
   11f6e:	f8c371e3          	bgeu	t1,a2,11ef0 <memset+0x26>
   11f72:	b79d                	j	11ed8 <memset+0xe>

0000000000011f74 <__malloc_lock>:
   11f74:	8082                	ret

0000000000011f76 <__malloc_unlock>:
   11f76:	8082                	ret

0000000000011f78 <_open_r>:
   11f78:	1101                	addi	sp,sp,-32
   11f7a:	872e                	mv	a4,a1
   11f7c:	e822                	sd	s0,16(sp)
   11f7e:	e426                	sd	s1,8(sp)
   11f80:	85b2                	mv	a1,a2
   11f82:	842a                	mv	s0,a0
   11f84:	8636                	mv	a2,a3
   11f86:	853a                	mv	a0,a4
   11f88:	ec06                	sd	ra,24(sp)
   11f8a:	8e01a423          	sw	zero,-1816(gp) # 26268 <errno>
   11f8e:	272100ef          	jal	ra,22200 <_open>
   11f92:	57fd                	li	a5,-1
   11f94:	00f50763          	beq	a0,a5,11fa2 <_open_r+0x2a>
   11f98:	60e2                	ld	ra,24(sp)
   11f9a:	6442                	ld	s0,16(sp)
   11f9c:	64a2                	ld	s1,8(sp)
   11f9e:	6105                	addi	sp,sp,32
   11fa0:	8082                	ret
   11fa2:	8e81a783          	lw	a5,-1816(gp) # 26268 <errno>
   11fa6:	dbed                	beqz	a5,11f98 <_open_r+0x20>
   11fa8:	60e2                	ld	ra,24(sp)
   11faa:	c01c                	sw	a5,0(s0)
   11fac:	6442                	ld	s0,16(sp)
   11fae:	64a2                	ld	s1,8(sp)
   11fb0:	6105                	addi	sp,sp,32
   11fb2:	8082                	ret

0000000000011fb4 <_printf_r>:
   11fb4:	715d                	addi	sp,sp,-80
   11fb6:	f032                	sd	a2,32(sp)
   11fb8:	f436                	sd	a3,40(sp)
   11fba:	f83a                	sd	a4,48(sp)
   11fbc:	fc3e                	sd	a5,56(sp)
   11fbe:	e0c2                	sd	a6,64(sp)
   11fc0:	e4c6                	sd	a7,72(sp)
   11fc2:	862e                	mv	a2,a1
   11fc4:	690c                	ld	a1,16(a0)
   11fc6:	1014                	addi	a3,sp,32
   11fc8:	ec06                	sd	ra,24(sp)
   11fca:	e436                	sd	a3,8(sp)
   11fcc:	5ca000ef          	jal	ra,12596 <_vfprintf_r>
   11fd0:	60e2                	ld	ra,24(sp)
   11fd2:	6161                	addi	sp,sp,80
   11fd4:	8082                	ret

0000000000011fd6 <printf>:
   11fd6:	8b01b303          	ld	t1,-1872(gp) # 26230 <_impure_ptr>
   11fda:	711d                	addi	sp,sp,-96
   11fdc:	f832                	sd	a2,48(sp)
   11fde:	fc36                	sd	a3,56(sp)
   11fe0:	f42e                	sd	a1,40(sp)
   11fe2:	e0ba                	sd	a4,64(sp)
   11fe4:	e4be                	sd	a5,72(sp)
   11fe6:	e8c2                	sd	a6,80(sp)
   11fe8:	ecc6                	sd	a7,88(sp)
   11fea:	01033583          	ld	a1,16(t1)
   11fee:	1034                	addi	a3,sp,40
   11ff0:	862a                	mv	a2,a0
   11ff2:	851a                	mv	a0,t1
   11ff4:	ec06                	sd	ra,24(sp)
   11ff6:	e436                	sd	a3,8(sp)
   11ff8:	59e000ef          	jal	ra,12596 <_vfprintf_r>
   11ffc:	60e2                	ld	ra,24(sp)
   11ffe:	6125                	addi	sp,sp,96
   12000:	8082                	ret

0000000000012002 <_putchar_r>:
   12002:	6910                	ld	a2,16(a0)
   12004:	a039                	j	12012 <_putc_r>

0000000000012006 <putchar>:
   12006:	8b01b783          	ld	a5,-1872(gp) # 26230 <_impure_ptr>
   1200a:	85aa                	mv	a1,a0
   1200c:	6b90                	ld	a2,16(a5)
   1200e:	853e                	mv	a0,a5
   12010:	a009                	j	12012 <_putc_r>

0000000000012012 <_putc_r>:
   12012:	1101                	addi	sp,sp,-32
   12014:	e84a                	sd	s2,16(sp)
   12016:	ec06                	sd	ra,24(sp)
   12018:	892a                	mv	s2,a0
   1201a:	c119                	beqz	a0,12020 <_putc_r+0xe>
   1201c:	493c                	lw	a5,80(a0)
   1201e:	cb9d                	beqz	a5,12054 <_putc_r+0x42>
   12020:	465c                	lw	a5,12(a2)
   12022:	fff7871b          	addiw	a4,a5,-1
   12026:	c658                	sw	a4,12(a2)
   12028:	00075a63          	bgez	a4,1203c <_putc_r+0x2a>
   1202c:	561c                	lw	a5,40(a2)
   1202e:	02f74a63          	blt	a4,a5,12062 <_putc_r+0x50>
   12032:	0ff5f793          	andi	a5,a1,255
   12036:	4729                	li	a4,10
   12038:	02e78563          	beq	a5,a4,12062 <_putc_r+0x50>
   1203c:	621c                	ld	a5,0(a2)
   1203e:	0ff5f513          	andi	a0,a1,255
   12042:	00178713          	addi	a4,a5,1 # fffffffffffff001 <__BSS_END__+0xffffffffffb94b21>
   12046:	e218                	sd	a4,0(a2)
   12048:	00b78023          	sb	a1,0(a5)
   1204c:	60e2                	ld	ra,24(sp)
   1204e:	6942                	ld	s2,16(sp)
   12050:	6105                	addi	sp,sp,32
   12052:	8082                	ret
   12054:	e432                	sd	a2,8(sp)
   12056:	e02e                	sd	a1,0(sp)
   12058:	c49fe0ef          	jal	ra,10ca0 <__sinit>
   1205c:	6622                	ld	a2,8(sp)
   1205e:	6582                	ld	a1,0(sp)
   12060:	b7c1                	j	12020 <_putc_r+0xe>
   12062:	60e2                	ld	ra,24(sp)
   12064:	854a                	mv	a0,s2
   12066:	6942                	ld	s2,16(sp)
   12068:	6105                	addi	sp,sp,32
   1206a:	5440406f          	j	165ae <__swbuf_r>

000000000001206e <putc>:
   1206e:	1101                	addi	sp,sp,-32
   12070:	e04a                	sd	s2,0(sp)
   12072:	8b01b903          	ld	s2,-1872(gp) # 26230 <_impure_ptr>
   12076:	e822                	sd	s0,16(sp)
   12078:	e426                	sd	s1,8(sp)
   1207a:	ec06                	sd	ra,24(sp)
   1207c:	84aa                	mv	s1,a0
   1207e:	842e                	mv	s0,a1
   12080:	00090563          	beqz	s2,1208a <putc+0x1c>
   12084:	05092783          	lw	a5,80(s2)
   12088:	cf8d                	beqz	a5,120c2 <putc+0x54>
   1208a:	445c                	lw	a5,12(s0)
   1208c:	fff7871b          	addiw	a4,a5,-1
   12090:	c458                	sw	a4,12(s0)
   12092:	00075a63          	bgez	a4,120a6 <putc+0x38>
   12096:	541c                	lw	a5,40(s0)
   12098:	02f74963          	blt	a4,a5,120ca <putc+0x5c>
   1209c:	0ff4f793          	andi	a5,s1,255
   120a0:	4729                	li	a4,10
   120a2:	02e78463          	beq	a5,a4,120ca <putc+0x5c>
   120a6:	601c                	ld	a5,0(s0)
   120a8:	0ff4f513          	andi	a0,s1,255
   120ac:	00178713          	addi	a4,a5,1
   120b0:	e018                	sd	a4,0(s0)
   120b2:	00978023          	sb	s1,0(a5)
   120b6:	60e2                	ld	ra,24(sp)
   120b8:	6442                	ld	s0,16(sp)
   120ba:	64a2                	ld	s1,8(sp)
   120bc:	6902                	ld	s2,0(sp)
   120be:	6105                	addi	sp,sp,32
   120c0:	8082                	ret
   120c2:	854a                	mv	a0,s2
   120c4:	bddfe0ef          	jal	ra,10ca0 <__sinit>
   120c8:	b7c9                	j	1208a <putc+0x1c>
   120ca:	8622                	mv	a2,s0
   120cc:	6442                	ld	s0,16(sp)
   120ce:	60e2                	ld	ra,24(sp)
   120d0:	85a6                	mv	a1,s1
   120d2:	854a                	mv	a0,s2
   120d4:	64a2                	ld	s1,8(sp)
   120d6:	6902                	ld	s2,0(sp)
   120d8:	6105                	addi	sp,sp,32
   120da:	4d40406f          	j	165ae <__swbuf_r>

00000000000120de <_puts_r>:
   120de:	7159                	addi	sp,sp,-112
   120e0:	f0a2                	sd	s0,96(sp)
   120e2:	842a                	mv	s0,a0
   120e4:	852e                	mv	a0,a1
   120e6:	eca6                	sd	s1,88(sp)
   120e8:	f486                	sd	ra,104(sp)
   120ea:	84ae                	mv	s1,a1
   120ec:	416000ef          	jal	ra,12502 <strlen>
   120f0:	000247b7          	lui	a5,0x24
   120f4:	8c878793          	addi	a5,a5,-1848 # 238c8 <__clzdi2+0x18c>
   120f8:	e0be                	sd	a5,64(sp)
   120fa:	4785                	li	a5,1
   120fc:	e4be                	sd	a5,72(sp)
   120fe:	4838                	lw	a4,80(s0)
   12100:	181c                	addi	a5,sp,48
   12102:	00150693          	addi	a3,a0,1
   12106:	ec3e                	sd	a5,24(sp)
   12108:	4789                	li	a5,2
   1210a:	f826                	sd	s1,48(sp)
   1210c:	fc2a                	sd	a0,56(sp)
   1210e:	f436                	sd	a3,40(sp)
   12110:	d03e                	sw	a5,32(sp)
   12112:	680c                	ld	a1,16(s0)
   12114:	cf0d                	beqz	a4,1214e <_puts_r+0x70>
   12116:	01059783          	lh	a5,16(a1)
   1211a:	03279713          	slli	a4,a5,0x32
   1211e:	00074d63          	bltz	a4,12138 <_puts_r+0x5a>
   12122:	0ac5a703          	lw	a4,172(a1)
   12126:	6689                	lui	a3,0x2
   12128:	8fd5                	or	a5,a5,a3
   1212a:	76f9                	lui	a3,0xffffe
   1212c:	16fd                	addi	a3,a3,-1
   1212e:	8f75                	and	a4,a4,a3
   12130:	00f59823          	sh	a5,16(a1)
   12134:	0ae5a623          	sw	a4,172(a1)
   12138:	0830                	addi	a2,sp,24
   1213a:	8522                	mv	a0,s0
   1213c:	1ff040ef          	jal	ra,16b3a <__sfvwrite_r>
   12140:	ed09                	bnez	a0,1215a <_puts_r+0x7c>
   12142:	4529                	li	a0,10
   12144:	70a6                	ld	ra,104(sp)
   12146:	7406                	ld	s0,96(sp)
   12148:	64e6                	ld	s1,88(sp)
   1214a:	6165                	addi	sp,sp,112
   1214c:	8082                	ret
   1214e:	8522                	mv	a0,s0
   12150:	e42e                	sd	a1,8(sp)
   12152:	b4ffe0ef          	jal	ra,10ca0 <__sinit>
   12156:	65a2                	ld	a1,8(sp)
   12158:	bf7d                	j	12116 <_puts_r+0x38>
   1215a:	557d                	li	a0,-1
   1215c:	b7e5                	j	12144 <_puts_r+0x66>

000000000001215e <puts>:
   1215e:	85aa                	mv	a1,a0
   12160:	8b01b503          	ld	a0,-1872(gp) # 26230 <_impure_ptr>
   12164:	bfad                	j	120de <_puts_r>

0000000000012166 <cleanup_glue>:
   12166:	7179                	addi	sp,sp,-48
   12168:	e84a                	sd	s2,16(sp)
   1216a:	0005b903          	ld	s2,0(a1)
   1216e:	f022                	sd	s0,32(sp)
   12170:	ec26                	sd	s1,24(sp)
   12172:	f406                	sd	ra,40(sp)
   12174:	e44e                	sd	s3,8(sp)
   12176:	e052                	sd	s4,0(sp)
   12178:	842e                	mv	s0,a1
   1217a:	84aa                	mv	s1,a0
   1217c:	02090b63          	beqz	s2,121b2 <cleanup_glue+0x4c>
   12180:	00093983          	ld	s3,0(s2)
   12184:	02098363          	beqz	s3,121aa <cleanup_glue+0x44>
   12188:	0009ba03          	ld	s4,0(s3)
   1218c:	000a0b63          	beqz	s4,121a2 <cleanup_glue+0x3c>
   12190:	000a3583          	ld	a1,0(s4)
   12194:	c199                	beqz	a1,1219a <cleanup_glue+0x34>
   12196:	fd1ff0ef          	jal	ra,12166 <cleanup_glue>
   1219a:	85d2                	mv	a1,s4
   1219c:	8526                	mv	a0,s1
   1219e:	d83fe0ef          	jal	ra,10f20 <_free_r>
   121a2:	85ce                	mv	a1,s3
   121a4:	8526                	mv	a0,s1
   121a6:	d7bfe0ef          	jal	ra,10f20 <_free_r>
   121aa:	85ca                	mv	a1,s2
   121ac:	8526                	mv	a0,s1
   121ae:	d73fe0ef          	jal	ra,10f20 <_free_r>
   121b2:	85a2                	mv	a1,s0
   121b4:	7402                	ld	s0,32(sp)
   121b6:	70a2                	ld	ra,40(sp)
   121b8:	6942                	ld	s2,16(sp)
   121ba:	69a2                	ld	s3,8(sp)
   121bc:	6a02                	ld	s4,0(sp)
   121be:	8526                	mv	a0,s1
   121c0:	64e2                	ld	s1,24(sp)
   121c2:	6145                	addi	sp,sp,48
   121c4:	d5dfe06f          	j	10f20 <_free_r>

00000000000121c8 <_reclaim_reent>:
   121c8:	8b01b783          	ld	a5,-1872(gp) # 26230 <_impure_ptr>
   121cc:	0aa78563          	beq	a5,a0,12276 <_reclaim_reent+0xae>
   121d0:	7d2c                	ld	a1,120(a0)
   121d2:	7179                	addi	sp,sp,-48
   121d4:	ec26                	sd	s1,24(sp)
   121d6:	f406                	sd	ra,40(sp)
   121d8:	f022                	sd	s0,32(sp)
   121da:	e84a                	sd	s2,16(sp)
   121dc:	e44e                	sd	s3,8(sp)
   121de:	84aa                	mv	s1,a0
   121e0:	c58d                	beqz	a1,1220a <_reclaim_reent+0x42>
   121e2:	4901                	li	s2,0
   121e4:	20000993          	li	s3,512
   121e8:	012587b3          	add	a5,a1,s2
   121ec:	6380                	ld	s0,0(a5)
   121ee:	c801                	beqz	s0,121fe <_reclaim_reent+0x36>
   121f0:	85a2                	mv	a1,s0
   121f2:	6000                	ld	s0,0(s0)
   121f4:	8526                	mv	a0,s1
   121f6:	d2bfe0ef          	jal	ra,10f20 <_free_r>
   121fa:	f87d                	bnez	s0,121f0 <_reclaim_reent+0x28>
   121fc:	7cac                	ld	a1,120(s1)
   121fe:	0921                	addi	s2,s2,8
   12200:	ff3914e3          	bne	s2,s3,121e8 <_reclaim_reent+0x20>
   12204:	8526                	mv	a0,s1
   12206:	d1bfe0ef          	jal	ra,10f20 <_free_r>
   1220a:	70ac                	ld	a1,96(s1)
   1220c:	c581                	beqz	a1,12214 <_reclaim_reent+0x4c>
   1220e:	8526                	mv	a0,s1
   12210:	d11fe0ef          	jal	ra,10f20 <_free_r>
   12214:	1f84b403          	ld	s0,504(s1)
   12218:	cc01                	beqz	s0,12230 <_reclaim_reent+0x68>
   1221a:	20048913          	addi	s2,s1,512
   1221e:	01240963          	beq	s0,s2,12230 <_reclaim_reent+0x68>
   12222:	85a2                	mv	a1,s0
   12224:	6000                	ld	s0,0(s0)
   12226:	8526                	mv	a0,s1
   12228:	cf9fe0ef          	jal	ra,10f20 <_free_r>
   1222c:	fe891be3          	bne	s2,s0,12222 <_reclaim_reent+0x5a>
   12230:	64cc                	ld	a1,136(s1)
   12232:	c581                	beqz	a1,1223a <_reclaim_reent+0x72>
   12234:	8526                	mv	a0,s1
   12236:	cebfe0ef          	jal	ra,10f20 <_free_r>
   1223a:	48bc                	lw	a5,80(s1)
   1223c:	c795                	beqz	a5,12268 <_reclaim_reent+0xa0>
   1223e:	6cbc                	ld	a5,88(s1)
   12240:	8526                	mv	a0,s1
   12242:	9782                	jalr	a5
   12244:	5204b403          	ld	s0,1312(s1)
   12248:	c005                	beqz	s0,12268 <_reclaim_reent+0xa0>
   1224a:	600c                	ld	a1,0(s0)
   1224c:	c581                	beqz	a1,12254 <_reclaim_reent+0x8c>
   1224e:	8526                	mv	a0,s1
   12250:	f17ff0ef          	jal	ra,12166 <cleanup_glue>
   12254:	85a2                	mv	a1,s0
   12256:	7402                	ld	s0,32(sp)
   12258:	70a2                	ld	ra,40(sp)
   1225a:	6942                	ld	s2,16(sp)
   1225c:	69a2                	ld	s3,8(sp)
   1225e:	8526                	mv	a0,s1
   12260:	64e2                	ld	s1,24(sp)
   12262:	6145                	addi	sp,sp,48
   12264:	cbdfe06f          	j	10f20 <_free_r>
   12268:	70a2                	ld	ra,40(sp)
   1226a:	7402                	ld	s0,32(sp)
   1226c:	64e2                	ld	s1,24(sp)
   1226e:	6942                	ld	s2,16(sp)
   12270:	69a2                	ld	s3,8(sp)
   12272:	6145                	addi	sp,sp,48
   12274:	8082                	ret
   12276:	8082                	ret

0000000000012278 <lflush>:
   12278:	01055783          	lhu	a5,16(a0)
   1227c:	4725                	li	a4,9
   1227e:	8ba5                	andi	a5,a5,9
   12280:	00e78463          	beq	a5,a4,12288 <lflush+0x10>
   12284:	4501                	li	a0,0
   12286:	8082                	ret
   12288:	f6cfe06f          	j	109f4 <fflush>

000000000001228c <__srefill_r>:
   1228c:	7179                	addi	sp,sp,-48
   1228e:	f022                	sd	s0,32(sp)
   12290:	ec26                	sd	s1,24(sp)
   12292:	f406                	sd	ra,40(sp)
   12294:	e84a                	sd	s2,16(sp)
   12296:	e44e                	sd	s3,8(sp)
   12298:	84aa                	mv	s1,a0
   1229a:	842e                	mv	s0,a1
   1229c:	c119                	beqz	a0,122a2 <__srefill_r+0x16>
   1229e:	493c                	lw	a5,80(a0)
   122a0:	c7e9                	beqz	a5,1236a <__srefill_r+0xde>
   122a2:	01041783          	lh	a5,16(s0)
   122a6:	6689                	lui	a3,0x2
   122a8:	03079713          	slli	a4,a5,0x30
   122ac:	9341                	srli	a4,a4,0x30
   122ae:	00d77633          	and	a2,a4,a3
   122b2:	e215                	bnez	a2,122d6 <__srefill_r+0x4a>
   122b4:	0ac42703          	lw	a4,172(s0)
   122b8:	8fd5                	or	a5,a5,a3
   122ba:	76f9                	lui	a3,0xffffe
   122bc:	0107979b          	slliw	a5,a5,0x10
   122c0:	16fd                	addi	a3,a3,-1
   122c2:	4107d79b          	sraiw	a5,a5,0x10
   122c6:	8f75                	and	a4,a4,a3
   122c8:	0ae42623          	sw	a4,172(s0)
   122cc:	03079713          	slli	a4,a5,0x30
   122d0:	00f41823          	sh	a5,16(s0)
   122d4:	9341                	srli	a4,a4,0x30
   122d6:	00042423          	sw	zero,8(s0)
   122da:	02077693          	andi	a3,a4,32
   122de:	0e069763          	bnez	a3,123cc <__srefill_r+0x140>
   122e2:	00477693          	andi	a3,a4,4
   122e6:	eab1                	bnez	a3,1233a <__srefill_r+0xae>
   122e8:	01077693          	andi	a3,a4,16
   122ec:	0e068b63          	beqz	a3,123e2 <__srefill_r+0x156>
   122f0:	8b21                	andi	a4,a4,8
   122f2:	e74d                	bnez	a4,1239c <__srefill_r+0x110>
   122f4:	0047e793          	ori	a5,a5,4
   122f8:	00f41823          	sh	a5,16(s0)
   122fc:	6c1c                	ld	a5,24(s0)
   122fe:	cfc5                	beqz	a5,123b6 <__srefill_r+0x12a>
   12300:	01041903          	lh	s2,16(s0)
   12304:	03091993          	slli	s3,s2,0x30
   12308:	00397793          	andi	a5,s2,3
   1230c:	0309d993          	srli	s3,s3,0x30
   12310:	e3a5                	bnez	a5,12370 <__srefill_r+0xe4>
   12312:	6c10                	ld	a2,24(s0)
   12314:	7c1c                	ld	a5,56(s0)
   12316:	5014                	lw	a3,32(s0)
   12318:	780c                	ld	a1,48(s0)
   1231a:	e010                	sd	a2,0(s0)
   1231c:	8526                	mv	a0,s1
   1231e:	9782                	jalr	a5
   12320:	0005079b          	sext.w	a5,a0
   12324:	c41c                	sw	a5,8(s0)
   12326:	4501                	li	a0,0
   12328:	0af05463          	blez	a5,123d0 <__srefill_r+0x144>
   1232c:	70a2                	ld	ra,40(sp)
   1232e:	7402                	ld	s0,32(sp)
   12330:	64e2                	ld	s1,24(sp)
   12332:	6942                	ld	s2,16(sp)
   12334:	69a2                	ld	s3,8(sp)
   12336:	6145                	addi	sp,sp,48
   12338:	8082                	ret
   1233a:	6c2c                	ld	a1,88(s0)
   1233c:	d1e1                	beqz	a1,122fc <__srefill_r+0x70>
   1233e:	07440793          	addi	a5,s0,116
   12342:	00f58563          	beq	a1,a5,1234c <__srefill_r+0xc0>
   12346:	8526                	mv	a0,s1
   12348:	bd9fe0ef          	jal	ra,10f20 <_free_r>
   1234c:	583c                	lw	a5,112(s0)
   1234e:	04043c23          	sd	zero,88(s0)
   12352:	c41c                	sw	a5,8(s0)
   12354:	d7c5                	beqz	a5,122fc <__srefill_r+0x70>
   12356:	743c                	ld	a5,104(s0)
   12358:	70a2                	ld	ra,40(sp)
   1235a:	64e2                	ld	s1,24(sp)
   1235c:	e01c                	sd	a5,0(s0)
   1235e:	7402                	ld	s0,32(sp)
   12360:	6942                	ld	s2,16(sp)
   12362:	69a2                	ld	s3,8(sp)
   12364:	4501                	li	a0,0
   12366:	6145                	addi	sp,sp,48
   12368:	8082                	ret
   1236a:	937fe0ef          	jal	ra,10ca0 <__sinit>
   1236e:	bf15                	j	122a2 <__srefill_r+0x16>
   12370:	8a01b503          	ld	a0,-1888(gp) # 26220 <_global_impure_ptr>
   12374:	65c9                	lui	a1,0x12
   12376:	4785                	li	a5,1
   12378:	00f41823          	sh	a5,16(s0)
   1237c:	27858593          	addi	a1,a1,632 # 12278 <lflush>
   12380:	a0cff0ef          	jal	ra,1158c <_fwalk>
   12384:	0099f993          	andi	s3,s3,9
   12388:	01241823          	sh	s2,16(s0)
   1238c:	47a5                	li	a5,9
   1238e:	f8f992e3          	bne	s3,a5,12312 <__srefill_r+0x86>
   12392:	85a2                	mv	a1,s0
   12394:	8526                	mv	a0,s1
   12396:	c96fe0ef          	jal	ra,1082c <__sflush_r>
   1239a:	bfa5                	j	12312 <__srefill_r+0x86>
   1239c:	85a2                	mv	a1,s0
   1239e:	8526                	mv	a0,s1
   123a0:	e1efe0ef          	jal	ra,109be <_fflush_r>
   123a4:	e505                	bnez	a0,123cc <__srefill_r+0x140>
   123a6:	01041783          	lh	a5,16(s0)
   123aa:	00042623          	sw	zero,12(s0)
   123ae:	02042423          	sw	zero,40(s0)
   123b2:	9bdd                	andi	a5,a5,-9
   123b4:	b781                	j	122f4 <__srefill_r+0x68>
   123b6:	85a2                	mv	a1,s0
   123b8:	8526                	mv	a0,s1
   123ba:	b50ff0ef          	jal	ra,1170a <__smakebuf_r>
   123be:	b789                	j	12300 <__srefill_r+0x74>
   123c0:	04076713          	ori	a4,a4,64
   123c4:	00042423          	sw	zero,8(s0)
   123c8:	00e41823          	sh	a4,16(s0)
   123cc:	557d                	li	a0,-1
   123ce:	bfb9                	j	1232c <__srefill_r+0xa0>
   123d0:	01041703          	lh	a4,16(s0)
   123d4:	f7f5                	bnez	a5,123c0 <__srefill_r+0x134>
   123d6:	02076713          	ori	a4,a4,32
   123da:	00e41823          	sh	a4,16(s0)
   123de:	557d                	li	a0,-1
   123e0:	b7b1                	j	1232c <__srefill_r+0xa0>
   123e2:	4725                	li	a4,9
   123e4:	c098                	sw	a4,0(s1)
   123e6:	0407e793          	ori	a5,a5,64
   123ea:	00f41823          	sh	a5,16(s0)
   123ee:	557d                	li	a0,-1
   123f0:	bf35                	j	1232c <__srefill_r+0xa0>

00000000000123f2 <_sbrk_r>:
   123f2:	1101                	addi	sp,sp,-32
   123f4:	e822                	sd	s0,16(sp)
   123f6:	e426                	sd	s1,8(sp)
   123f8:	842a                	mv	s0,a0
   123fa:	852e                	mv	a0,a1
   123fc:	ec06                	sd	ra,24(sp)
   123fe:	8e01a423          	sw	zero,-1816(gp) # 26268 <errno>
   12402:	6630f0ef          	jal	ra,22264 <_sbrk>
   12406:	57fd                	li	a5,-1
   12408:	00f50763          	beq	a0,a5,12416 <_sbrk_r+0x24>
   1240c:	60e2                	ld	ra,24(sp)
   1240e:	6442                	ld	s0,16(sp)
   12410:	64a2                	ld	s1,8(sp)
   12412:	6105                	addi	sp,sp,32
   12414:	8082                	ret
   12416:	8e81a783          	lw	a5,-1816(gp) # 26268 <errno>
   1241a:	dbed                	beqz	a5,1240c <_sbrk_r+0x1a>
   1241c:	60e2                	ld	ra,24(sp)
   1241e:	c01c                	sw	a5,0(s0)
   12420:	6442                	ld	s0,16(sp)
   12422:	64a2                	ld	s1,8(sp)
   12424:	6105                	addi	sp,sp,32
   12426:	8082                	ret

0000000000012428 <__sread>:
   12428:	1141                	addi	sp,sp,-16
   1242a:	e022                	sd	s0,0(sp)
   1242c:	842e                	mv	s0,a1
   1242e:	01259583          	lh	a1,18(a1)
   12432:	e406                	sd	ra,8(sp)
   12434:	47b070ef          	jal	ra,1a0ae <_read_r>
   12438:	00054963          	bltz	a0,1244a <__sread+0x22>
   1243c:	685c                	ld	a5,144(s0)
   1243e:	60a2                	ld	ra,8(sp)
   12440:	97aa                	add	a5,a5,a0
   12442:	e85c                	sd	a5,144(s0)
   12444:	6402                	ld	s0,0(sp)
   12446:	0141                	addi	sp,sp,16
   12448:	8082                	ret
   1244a:	01045783          	lhu	a5,16(s0)
   1244e:	777d                	lui	a4,0xfffff
   12450:	177d                	addi	a4,a4,-1
   12452:	8ff9                	and	a5,a5,a4
   12454:	60a2                	ld	ra,8(sp)
   12456:	00f41823          	sh	a5,16(s0)
   1245a:	6402                	ld	s0,0(sp)
   1245c:	0141                	addi	sp,sp,16
   1245e:	8082                	ret

0000000000012460 <__seofread>:
   12460:	4501                	li	a0,0
   12462:	8082                	ret

0000000000012464 <__swrite>:
   12464:	01059783          	lh	a5,16(a1)
   12468:	7179                	addi	sp,sp,-48
   1246a:	f022                	sd	s0,32(sp)
   1246c:	ec26                	sd	s1,24(sp)
   1246e:	e84a                	sd	s2,16(sp)
   12470:	e44e                	sd	s3,8(sp)
   12472:	f406                	sd	ra,40(sp)
   12474:	1007f713          	andi	a4,a5,256
   12478:	842e                	mv	s0,a1
   1247a:	84aa                	mv	s1,a0
   1247c:	01259583          	lh	a1,18(a1)
   12480:	8932                	mv	s2,a2
   12482:	89b6                	mv	s3,a3
   12484:	e30d                	bnez	a4,124a6 <__swrite+0x42>
   12486:	777d                	lui	a4,0xfffff
   12488:	177d                	addi	a4,a4,-1
   1248a:	8ff9                	and	a5,a5,a4
   1248c:	00f41823          	sh	a5,16(s0)
   12490:	7402                	ld	s0,32(sp)
   12492:	70a2                	ld	ra,40(sp)
   12494:	86ce                	mv	a3,s3
   12496:	864a                	mv	a2,s2
   12498:	69a2                	ld	s3,8(sp)
   1249a:	6942                	ld	s2,16(sp)
   1249c:	8526                	mv	a0,s1
   1249e:	64e2                	ld	s1,24(sp)
   124a0:	6145                	addi	sp,sp,48
   124a2:	2100406f          	j	166b2 <_write_r>
   124a6:	4689                	li	a3,2
   124a8:	4601                	li	a2,0
   124aa:	3bf060ef          	jal	ra,19068 <_lseek_r>
   124ae:	01041783          	lh	a5,16(s0)
   124b2:	01241583          	lh	a1,18(s0)
   124b6:	bfc1                	j	12486 <__swrite+0x22>

00000000000124b8 <__sseek>:
   124b8:	1141                	addi	sp,sp,-16
   124ba:	e022                	sd	s0,0(sp)
   124bc:	842e                	mv	s0,a1
   124be:	01259583          	lh	a1,18(a1)
   124c2:	e406                	sd	ra,8(sp)
   124c4:	3a5060ef          	jal	ra,19068 <_lseek_r>
   124c8:	57fd                	li	a5,-1
   124ca:	00f50d63          	beq	a0,a5,124e4 <__sseek+0x2c>
   124ce:	01045783          	lhu	a5,16(s0)
   124d2:	6705                	lui	a4,0x1
   124d4:	60a2                	ld	ra,8(sp)
   124d6:	8fd9                	or	a5,a5,a4
   124d8:	e848                	sd	a0,144(s0)
   124da:	00f41823          	sh	a5,16(s0)
   124de:	6402                	ld	s0,0(sp)
   124e0:	0141                	addi	sp,sp,16
   124e2:	8082                	ret
   124e4:	01045783          	lhu	a5,16(s0)
   124e8:	777d                	lui	a4,0xfffff
   124ea:	177d                	addi	a4,a4,-1
   124ec:	8ff9                	and	a5,a5,a4
   124ee:	60a2                	ld	ra,8(sp)
   124f0:	00f41823          	sh	a5,16(s0)
   124f4:	6402                	ld	s0,0(sp)
   124f6:	0141                	addi	sp,sp,16
   124f8:	8082                	ret

00000000000124fa <__sclose>:
   124fa:	01259583          	lh	a1,18(a1)
   124fe:	3aa0406f          	j	168a8 <_close_r>

0000000000012502 <strlen>:
   12502:	00757793          	andi	a5,a0,7
   12506:	872a                	mv	a4,a0
   12508:	ebb9                	bnez	a5,1255e <strlen+0x5c>
   1250a:	000267b7          	lui	a5,0x26
   1250e:	1807b683          	ld	a3,384(a5) # 26180 <__SDATA_BEGIN__>
   12512:	55fd                	li	a1,-1
   12514:	6310                	ld	a2,0(a4)
   12516:	0721                	addi	a4,a4,8
   12518:	00d677b3          	and	a5,a2,a3
   1251c:	97b6                	add	a5,a5,a3
   1251e:	8fd1                	or	a5,a5,a2
   12520:	8fd5                	or	a5,a5,a3
   12522:	feb789e3          	beq	a5,a1,12514 <strlen+0x12>
   12526:	ff874683          	lbu	a3,-8(a4) # ffffffffffffeff8 <__BSS_END__+0xffffffffffb94b18>
   1252a:	40a707b3          	sub	a5,a4,a0
   1252e:	c6a9                	beqz	a3,12578 <strlen+0x76>
   12530:	ff974683          	lbu	a3,-7(a4)
   12534:	ce9d                	beqz	a3,12572 <strlen+0x70>
   12536:	ffa74683          	lbu	a3,-6(a4)
   1253a:	c6a9                	beqz	a3,12584 <strlen+0x82>
   1253c:	ffb74683          	lbu	a3,-5(a4)
   12540:	ce9d                	beqz	a3,1257e <strlen+0x7c>
   12542:	ffc74683          	lbu	a3,-4(a4)
   12546:	ffd74603          	lbu	a2,-3(a4)
   1254a:	ffe74503          	lbu	a0,-2(a4)
   1254e:	ce95                	beqz	a3,1258a <strlen+0x88>
   12550:	c221                	beqz	a2,12590 <strlen+0x8e>
   12552:	00a03533          	snez	a0,a0
   12556:	953e                	add	a0,a0,a5
   12558:	1579                	addi	a0,a0,-2
   1255a:	8082                	ret
   1255c:	d6dd                	beqz	a3,1250a <strlen+0x8>
   1255e:	00074783          	lbu	a5,0(a4)
   12562:	0705                	addi	a4,a4,1
   12564:	00777693          	andi	a3,a4,7
   12568:	fbf5                	bnez	a5,1255c <strlen+0x5a>
   1256a:	8f09                	sub	a4,a4,a0
   1256c:	fff70513          	addi	a0,a4,-1
   12570:	8082                	ret
   12572:	ff978513          	addi	a0,a5,-7
   12576:	8082                	ret
   12578:	ff878513          	addi	a0,a5,-8
   1257c:	8082                	ret
   1257e:	ffb78513          	addi	a0,a5,-5
   12582:	8082                	ret
   12584:	ffa78513          	addi	a0,a5,-6
   12588:	8082                	ret
   1258a:	ffc78513          	addi	a0,a5,-4
   1258e:	8082                	ret
   12590:	ffd78513          	addi	a0,a5,-3
   12594:	8082                	ret

0000000000012596 <_vfprintf_r>:
   12596:	d8010113          	addi	sp,sp,-640
   1259a:	26113c23          	sd	ra,632(sp)
   1259e:	27213023          	sd	s2,608(sp)
   125a2:	25413823          	sd	s4,592(sp)
   125a6:	23913423          	sd	s9,552(sp)
   125aa:	892e                	mv	s2,a1
   125ac:	8cb2                	mv	s9,a2
   125ae:	e836                	sd	a3,16(sp)
   125b0:	26813823          	sd	s0,624(sp)
   125b4:	26913423          	sd	s1,616(sp)
   125b8:	25313c23          	sd	s3,600(sp)
   125bc:	25513423          	sd	s5,584(sp)
   125c0:	25613023          	sd	s6,576(sp)
   125c4:	23713c23          	sd	s7,568(sp)
   125c8:	23813823          	sd	s8,560(sp)
   125cc:	23a13023          	sd	s10,544(sp)
   125d0:	21b13c23          	sd	s11,536(sp)
   125d4:	8a2a                	mv	s4,a0
   125d6:	1cd060ef          	jal	ra,18fa2 <_localeconv_r>
   125da:	611c                	ld	a5,0(a0)
   125dc:	853e                	mv	a0,a5
   125de:	f8be                	sd	a5,112(sp)
   125e0:	f23ff0ef          	jal	ra,12502 <strlen>
   125e4:	f4aa                	sd	a0,104(sp)
   125e6:	e202                	sd	zero,256(sp)
   125e8:	e602                	sd	zero,264(sp)
   125ea:	000a0663          	beqz	s4,125f6 <_vfprintf_r+0x60>
   125ee:	050a2783          	lw	a5,80(s4)
   125f2:	72078d63          	beqz	a5,12d2c <_vfprintf_r+0x796>
   125f6:	01091703          	lh	a4,16(s2)
   125fa:	6689                	lui	a3,0x2
   125fc:	03071793          	slli	a5,a4,0x30
   12600:	93c1                	srli	a5,a5,0x30
   12602:	00d7f633          	and	a2,a5,a3
   12606:	e215                	bnez	a2,1262a <_vfprintf_r+0x94>
   12608:	0ac92603          	lw	a2,172(s2)
   1260c:	00d767b3          	or	a5,a4,a3
   12610:	0107979b          	slliw	a5,a5,0x10
   12614:	7779                	lui	a4,0xffffe
   12616:	4107d79b          	sraiw	a5,a5,0x10
   1261a:	177d                	addi	a4,a4,-1
   1261c:	8f71                	and	a4,a4,a2
   1261e:	00f91823          	sh	a5,16(s2)
   12622:	17c2                	slli	a5,a5,0x30
   12624:	0ae92623          	sw	a4,172(s2)
   12628:	93c1                	srli	a5,a5,0x30
   1262a:	0087f713          	andi	a4,a5,8
   1262e:	26070e63          	beqz	a4,128aa <_vfprintf_r+0x314>
   12632:	01893703          	ld	a4,24(s2)
   12636:	26070a63          	beqz	a4,128aa <_vfprintf_r+0x314>
   1263a:	8be9                	andi	a5,a5,26
   1263c:	4729                	li	a4,10
   1263e:	28e78363          	beq	a5,a4,128c4 <_vfprintf_r+0x32e>
   12642:	000247b7          	lui	a5,0x24
   12646:	ae87b783          	ld	a5,-1304(a5) # 23ae8 <zeroes.0+0x38>
   1264a:	19010b13          	addi	s6,sp,400
   1264e:	ea5a                	sd	s6,272(sp)
   12650:	ed3e                	sd	a5,152(sp)
   12652:	000247b7          	lui	a5,0x24
   12656:	ac87b783          	ld	a5,-1336(a5) # 23ac8 <zeroes.0+0x18>
   1265a:	f202                	sd	zero,288(sp)
   1265c:	10012c23          	sw	zero,280(sp)
   12660:	e93e                	sd	a5,144(sp)
   12662:	000247b7          	lui	a5,0x24
   12666:	ad87b783          	ld	a5,-1320(a5) # 23ad8 <zeroes.0+0x28>
   1266a:	f002                	sd	zero,32(sp)
   1266c:	f402                	sd	zero,40(sp)
   1266e:	f13e                	sd	a5,160(sp)
   12670:	000cc783          	lbu	a5,0(s9)
   12674:	fc82                	sd	zero,120(sp)
   12676:	f082                	sd	zero,96(sp)
   12678:	e102                	sd	zero,128(sp)
   1267a:	e502                	sd	zero,136(sp)
   1267c:	e402                	sd	zero,8(sp)
   1267e:	835a                	mv	t1,s6
   12680:	1c078663          	beqz	a5,1284c <_vfprintf_r+0x2b6>
   12684:	8466                	mv	s0,s9
   12686:	02500713          	li	a4,37
   1268a:	30e78463          	beq	a5,a4,12992 <_vfprintf_r+0x3fc>
   1268e:	00144783          	lbu	a5,1(s0)
   12692:	0405                	addi	s0,s0,1
   12694:	fbfd                	bnez	a5,1268a <_vfprintf_r+0xf4>
   12696:	419404bb          	subw	s1,s0,s9
   1269a:	1a048963          	beqz	s1,1284c <_vfprintf_r+0x2b6>
   1269e:	7712                	ld	a4,288(sp)
   126a0:	11812783          	lw	a5,280(sp)
   126a4:	01933023          	sd	s9,0(t1)
   126a8:	9726                	add	a4,a4,s1
   126aa:	2785                	addiw	a5,a5,1
   126ac:	00933423          	sd	s1,8(t1)
   126b0:	f23a                	sd	a4,288(sp)
   126b2:	10f12c23          	sw	a5,280(sp)
   126b6:	0007871b          	sext.w	a4,a5
   126ba:	479d                	li	a5,7
   126bc:	0341                	addi	t1,t1,16
   126be:	2ee7c163          	blt	a5,a4,129a0 <_vfprintf_r+0x40a>
   126c2:	6722                	ld	a4,8(sp)
   126c4:	00044783          	lbu	a5,0(s0)
   126c8:	9f25                	addw	a4,a4,s1
   126ca:	e43a                	sd	a4,8(sp)
   126cc:	18078063          	beqz	a5,1284c <_vfprintf_r+0x2b6>
   126d0:	000247b7          	lui	a5,0x24
   126d4:	00144e03          	lbu	t3,1(s0)
   126d8:	0c010fa3          	sb	zero,223(sp)
   126dc:	0405                	addi	s0,s0,1
   126de:	5c7d                	li	s8,-1
   126e0:	4a81                	li	s5,0
   126e2:	4481                	li	s1,0
   126e4:	05a00993          	li	s3,90
   126e8:	93078b93          	addi	s7,a5,-1744 # 23930 <__clzdi2+0x1f4>
   126ec:	4da5                	li	s11,9
   126ee:	0405                	addi	s0,s0,1
   126f0:	000e0d1b          	sext.w	s10,t3
   126f4:	02a00613          	li	a2,42
   126f8:	fe0d079b          	addiw	a5,s10,-32
   126fc:	0007871b          	sext.w	a4,a5
   12700:	04e9e363          	bltu	s3,a4,12746 <_vfprintf_r+0x1b0>
   12704:	02079713          	slli	a4,a5,0x20
   12708:	01e75793          	srli	a5,a4,0x1e
   1270c:	97de                	add	a5,a5,s7
   1270e:	439c                	lw	a5,0(a5)
   12710:	8782                	jr	a5
   12712:	4a81                	li	s5,0
   12714:	00044703          	lbu	a4,0(s0)
   12718:	002a979b          	slliw	a5,s5,0x2
   1271c:	01578abb          	addw	s5,a5,s5
   12720:	fd0d0e1b          	addiw	t3,s10,-48
   12724:	001a9a9b          	slliw	s5,s5,0x1
   12728:	fd07079b          	addiw	a5,a4,-48
   1272c:	0405                	addi	s0,s0,1
   1272e:	015e0abb          	addw	s5,t3,s5
   12732:	00070d1b          	sext.w	s10,a4
   12736:	fcfdffe3          	bgeu	s11,a5,12714 <_vfprintf_r+0x17e>
   1273a:	fe0d079b          	addiw	a5,s10,-32
   1273e:	0007871b          	sext.w	a4,a5
   12742:	fce9f1e3          	bgeu	s3,a4,12704 <_vfprintf_r+0x16e>
   12746:	100d0363          	beqz	s10,1284c <_vfprintf_r+0x2b6>
   1274a:	13a10423          	sb	s10,296(sp)
   1274e:	0c010fa3          	sb	zero,223(sp)
   12752:	4985                	li	s3,1
   12754:	4b85                	li	s7,1
   12756:	12810c93          	addi	s9,sp,296
   1275a:	ec02                	sd	zero,24(sp)
   1275c:	4c01                	li	s8,0
   1275e:	e482                	sd	zero,72(sp)
   12760:	ec82                	sd	zero,88(sp)
   12762:	e882                	sd	zero,80(sp)
   12764:	0024f293          	andi	t0,s1,2
   12768:	00028363          	beqz	t0,1276e <_vfprintf_r+0x1d8>
   1276c:	2989                	addiw	s3,s3,2
   1276e:	0844fd93          	andi	s11,s1,132
   12772:	7792                	ld	a5,288(sp)
   12774:	000d9663          	bnez	s11,12780 <_vfprintf_r+0x1ea>
   12778:	413a86bb          	subw	a3,s5,s3
   1277c:	22d049e3          	bgtz	a3,131ae <_vfprintf_r+0xc18>
   12780:	0df14703          	lbu	a4,223(sp)
   12784:	c70d                	beqz	a4,127ae <_vfprintf_r+0x218>
   12786:	11812703          	lw	a4,280(sp)
   1278a:	0df10693          	addi	a3,sp,223
   1278e:	00d33023          	sd	a3,0(t1)
   12792:	2705                	addiw	a4,a4,1
   12794:	4685                	li	a3,1
   12796:	0785                	addi	a5,a5,1
   12798:	00d33423          	sd	a3,8(t1)
   1279c:	10e12c23          	sw	a4,280(sp)
   127a0:	0007069b          	sext.w	a3,a4
   127a4:	f23e                	sd	a5,288(sp)
   127a6:	471d                	li	a4,7
   127a8:	0341                	addi	t1,t1,16
   127aa:	3ed74d63          	blt	a4,a3,12ba4 <_vfprintf_r+0x60e>
   127ae:	02028563          	beqz	t0,127d8 <_vfprintf_r+0x242>
   127b2:	11812703          	lw	a4,280(sp)
   127b6:	1194                	addi	a3,sp,224
   127b8:	00d33023          	sd	a3,0(t1)
   127bc:	2705                	addiw	a4,a4,1
   127be:	4689                	li	a3,2
   127c0:	0789                	addi	a5,a5,2
   127c2:	00d33423          	sd	a3,8(t1)
   127c6:	10e12c23          	sw	a4,280(sp)
   127ca:	0007069b          	sext.w	a3,a4
   127ce:	f23e                	sd	a5,288(sp)
   127d0:	471d                	li	a4,7
   127d2:	0341                	addi	t1,t1,16
   127d4:	26d748e3          	blt	a4,a3,13244 <_vfprintf_r+0xcae>
   127d8:	08000713          	li	a4,128
   127dc:	06ed8de3          	beq	s11,a4,13056 <_vfprintf_r+0xac0>
   127e0:	417c0c3b          	subw	s8,s8,s7
   127e4:	118042e3          	bgtz	s8,130e8 <_vfprintf_r+0xb52>
   127e8:	1004f713          	andi	a4,s1,256
   127ec:	78071c63          	bnez	a4,12f84 <_vfprintf_r+0x9ee>
   127f0:	11812703          	lw	a4,280(sp)
   127f4:	97de                	add	a5,a5,s7
   127f6:	01933023          	sd	s9,0(t1)
   127fa:	0017069b          	addiw	a3,a4,1
   127fe:	8736                	mv	a4,a3
   12800:	01733423          	sd	s7,8(t1)
   12804:	10e12c23          	sw	a4,280(sp)
   12808:	f23e                	sd	a5,288(sp)
   1280a:	471d                	li	a4,7
   1280c:	46d74863          	blt	a4,a3,12c7c <_vfprintf_r+0x6e6>
   12810:	0341                	addi	t1,t1,16
   12812:	8891                	andi	s1,s1,4
   12814:	c489                	beqz	s1,1281e <_vfprintf_r+0x288>
   12816:	413a84bb          	subw	s1,s5,s3
   1281a:	22904fe3          	bgtz	s1,13258 <_vfprintf_r+0xcc2>
   1281e:	8756                	mv	a4,s5
   12820:	013ad363          	bge	s5,s3,12826 <_vfprintf_r+0x290>
   12824:	874e                	mv	a4,s3
   12826:	66a2                	ld	a3,8(sp)
   12828:	9f35                	addw	a4,a4,a3
   1282a:	e43a                	sd	a4,8(sp)
   1282c:	140790e3          	bnez	a5,1316c <_vfprintf_r+0xbd6>
   12830:	67e2                	ld	a5,24(sp)
   12832:	10012c23          	sw	zero,280(sp)
   12836:	c789                	beqz	a5,12840 <_vfprintf_r+0x2aa>
   12838:	65e2                	ld	a1,24(sp)
   1283a:	8552                	mv	a0,s4
   1283c:	ee4fe0ef          	jal	ra,10f20 <_free_r>
   12840:	835a                	mv	t1,s6
   12842:	8ca2                	mv	s9,s0
   12844:	000cc783          	lbu	a5,0(s9)
   12848:	e2079ee3          	bnez	a5,12684 <_vfprintf_r+0xee>
   1284c:	7792                	ld	a5,288(sp)
   1284e:	c399                	beqz	a5,12854 <_vfprintf_r+0x2be>
   12850:	2860106f          	j	13ad6 <_vfprintf_r+0x1540>
   12854:	01095783          	lhu	a5,16(s2)
   12858:	0407f793          	andi	a5,a5,64
   1285c:	c399                	beqz	a5,12862 <_vfprintf_r+0x2cc>
   1285e:	5e80106f          	j	13e46 <_vfprintf_r+0x18b0>
   12862:	27813083          	ld	ra,632(sp)
   12866:	27013403          	ld	s0,624(sp)
   1286a:	6522                	ld	a0,8(sp)
   1286c:	26813483          	ld	s1,616(sp)
   12870:	26013903          	ld	s2,608(sp)
   12874:	25813983          	ld	s3,600(sp)
   12878:	25013a03          	ld	s4,592(sp)
   1287c:	24813a83          	ld	s5,584(sp)
   12880:	24013b03          	ld	s6,576(sp)
   12884:	23813b83          	ld	s7,568(sp)
   12888:	23013c03          	ld	s8,560(sp)
   1288c:	22813c83          	ld	s9,552(sp)
   12890:	22013d03          	ld	s10,544(sp)
   12894:	21813d83          	ld	s11,536(sp)
   12898:	28010113          	addi	sp,sp,640
   1289c:	8082                	ret
   1289e:	0104e493          	ori	s1,s1,16
   128a2:	00044e03          	lbu	t3,0(s0)
   128a6:	2481                	sext.w	s1,s1
   128a8:	b599                	j	126ee <_vfprintf_r+0x158>
   128aa:	85ca                	mv	a1,s2
   128ac:	8552                	mv	a0,s4
   128ae:	641030ef          	jal	ra,166ee <__swsetup_r>
   128b2:	c119                	beqz	a0,128b8 <_vfprintf_r+0x322>
   128b4:	5920106f          	j	13e46 <_vfprintf_r+0x18b0>
   128b8:	01095783          	lhu	a5,16(s2)
   128bc:	4729                	li	a4,10
   128be:	8be9                	andi	a5,a5,26
   128c0:	d8e791e3          	bne	a5,a4,12642 <_vfprintf_r+0xac>
   128c4:	01291783          	lh	a5,18(s2)
   128c8:	d607cde3          	bltz	a5,12642 <_vfprintf_r+0xac>
   128cc:	66c2                	ld	a3,16(sp)
   128ce:	8666                	mv	a2,s9
   128d0:	85ca                	mv	a1,s2
   128d2:	8552                	mv	a0,s4
   128d4:	061010ef          	jal	ra,14134 <__sbprintf>
   128d8:	e42a                	sd	a0,8(sp)
   128da:	b761                	j	12862 <_vfprintf_r+0x2cc>
   128dc:	0104e493          	ori	s1,s1,16
   128e0:	2481                	sext.w	s1,s1
   128e2:	66c2                	ld	a3,16(sp)
   128e4:	0204f793          	andi	a5,s1,32
   128e8:	00868713          	addi	a4,a3,8 # 2008 <register_fini-0xe0a8>
   128ec:	3c078163          	beqz	a5,12cae <_vfprintf_r+0x718>
   128f0:	629c                	ld	a5,0(a3)
   128f2:	89be                	mv	s3,a5
   128f4:	3c07cb63          	bltz	a5,12cca <_vfprintf_r+0x734>
   128f8:	57fd                	li	a5,-1
   128fa:	3efc09e3          	beq	s8,a5,134ec <_vfprintf_r+0xf56>
   128fe:	f7f4f493          	andi	s1,s1,-129
   12902:	e83a                	sd	a4,16(sp)
   12904:	00048d9b          	sext.w	s11,s1
   12908:	080996e3          	bnez	s3,13194 <_vfprintf_r+0xbfe>
   1290c:	080c17e3          	bnez	s8,1319a <_vfprintf_r+0xc04>
   12910:	84ee                	mv	s1,s11
   12912:	4c01                	li	s8,0
   12914:	4b81                	li	s7,0
   12916:	18c10c93          	addi	s9,sp,396
   1291a:	0df14783          	lbu	a5,223(sp)
   1291e:	000b899b          	sext.w	s3,s7
   12922:	018bd463          	bge	s7,s8,1292a <_vfprintf_r+0x394>
   12926:	000c099b          	sext.w	s3,s8
   1292a:	ec02                	sd	zero,24(sp)
   1292c:	e482                	sd	zero,72(sp)
   1292e:	ec82                	sd	zero,88(sp)
   12930:	e882                	sd	zero,80(sp)
   12932:	e20789e3          	beqz	a5,12764 <_vfprintf_r+0x1ce>
   12936:	2985                	addiw	s3,s3,1
   12938:	b535                	j	12764 <_vfprintf_r+0x1ce>
   1293a:	0104e493          	ori	s1,s1,16
   1293e:	2481                	sext.w	s1,s1
   12940:	66c2                	ld	a3,16(sp)
   12942:	0204f793          	andi	a5,s1,32
   12946:	00868713          	addi	a4,a3,8
   1294a:	34078363          	beqz	a5,12c90 <_vfprintf_r+0x6fa>
   1294e:	0006b983          	ld	s3,0(a3)
   12952:	bff4f493          	andi	s1,s1,-1025
   12956:	00048d9b          	sext.w	s11,s1
   1295a:	e83a                	sd	a4,16(sp)
   1295c:	4781                	li	a5,0
   1295e:	0c010fa3          	sb	zero,223(sp)
   12962:	577d                	li	a4,-1
   12964:	36ec0f63          	beq	s8,a4,12ce2 <_vfprintf_r+0x74c>
   12968:	f7fdf493          	andi	s1,s11,-129
   1296c:	2481                	sext.w	s1,s1
   1296e:	00099fe3          	bnez	s3,1318c <_vfprintf_r+0xbf6>
   12972:	5c0c1c63          	bnez	s8,12f4a <_vfprintf_r+0x9b4>
   12976:	ffd1                	bnez	a5,12912 <_vfprintf_r+0x37c>
   12978:	001dfb93          	andi	s7,s11,1
   1297c:	18c10c93          	addi	s9,sp,396
   12980:	f80b8de3          	beqz	s7,1291a <_vfprintf_r+0x384>
   12984:	03000793          	li	a5,48
   12988:	18f105a3          	sb	a5,395(sp)
   1298c:	18b10c93          	addi	s9,sp,395
   12990:	b769                	j	1291a <_vfprintf_r+0x384>
   12992:	419404bb          	subw	s1,s0,s9
   12996:	d00494e3          	bnez	s1,1269e <_vfprintf_r+0x108>
   1299a:	00044783          	lbu	a5,0(s0)
   1299e:	b33d                	j	126cc <_vfprintf_r+0x136>
   129a0:	0a10                	addi	a2,sp,272
   129a2:	85ca                	mv	a1,s2
   129a4:	8552                	mv	a0,s4
   129a6:	4140b0ef          	jal	ra,1ddba <__sprint_r>
   129aa:	ea0515e3          	bnez	a0,12854 <_vfprintf_r+0x2be>
   129ae:	835a                	mv	t1,s6
   129b0:	bb09                	j	126c2 <_vfprintf_r+0x12c>
   129b2:	0084f793          	andi	a5,s1,8
   129b6:	320790e3          	bnez	a5,134d6 <_vfprintf_r+0xf40>
   129ba:	67c2                	ld	a5,16(sp)
   129bc:	ec1a                	sd	t1,24(sp)
   129be:	2388                	fld	fa0,0(a5)
   129c0:	07a1                	addi	a5,a5,8
   129c2:	e83e                	sd	a5,16(sp)
   129c4:	28b100ef          	jal	ra,2344e <__extenddftf2>
   129c8:	6362                	ld	t1,24(sp)
   129ca:	e22a                	sd	a0,256(sp)
   129cc:	e62e                	sd	a1,264(sp)
   129ce:	0208                	addi	a0,sp,256
   129d0:	ec1a                	sd	t1,24(sp)
   129d2:	588060ef          	jal	ra,18f5a <_ldcheck>
   129d6:	d5aa                	sw	a0,232(sp)
   129d8:	4789                	li	a5,2
   129da:	6362                	ld	t1,24(sp)
   129dc:	5af50be3          	beq	a0,a5,13792 <_vfprintf_r+0x11fc>
   129e0:	4785                	li	a5,1
   129e2:	6af50ce3          	beq	a0,a5,1389a <_vfprintf_r+0x1304>
   129e6:	06100793          	li	a5,97
   129ea:	00fd1463          	bne	s10,a5,129f2 <_vfprintf_r+0x45c>
   129ee:	5740106f          	j	13f62 <_vfprintf_r+0x19cc>
   129f2:	04100793          	li	a5,65
   129f6:	00fd1463          	bne	s10,a5,129fe <_vfprintf_r+0x468>
   129fa:	10e0106f          	j	13b08 <_vfprintf_r+0x1572>
   129fe:	fdfd7713          	andi	a4,s10,-33
   12a02:	57fd                	li	a5,-1
   12a04:	ecba                	sd	a4,88(sp)
   12a06:	00fc1463          	bne	s8,a5,12a0e <_vfprintf_r+0x478>
   12a0a:	5740106f          	j	13f7e <_vfprintf_r+0x19e8>
   12a0e:	04700793          	li	a5,71
   12a12:	00f71463          	bne	a4,a5,12a1a <_vfprintf_r+0x484>
   12a16:	55a0106f          	j	13f70 <_vfprintf_r+0x19da>
   12a1a:	6bb2                	ld	s7,264(sp)
   12a1c:	1004e793          	ori	a5,s1,256
   12a20:	fd26                	sd	s1,184(sp)
   12a22:	6d92                	ld	s11,256(sp)
   12a24:	2781                	sext.w	a5,a5
   12a26:	000bd463          	bgez	s7,12a2e <_vfprintf_r+0x498>
   12a2a:	2b80106f          	j	13ce2 <_vfprintf_r+0x174c>
   12a2e:	e582                	sd	zero,200(sp)
   12a30:	84be                	mv	s1,a5
   12a32:	ec02                	sd	zero,24(sp)
   12a34:	6766                	ld	a4,88(sp)
   12a36:	04600793          	li	a5,70
   12a3a:	00f71463          	bne	a4,a5,12a42 <_vfprintf_r+0x4ac>
   12a3e:	2f60106f          	j	13d34 <_vfprintf_r+0x179e>
   12a42:	04500793          	li	a5,69
   12a46:	f01a                	sd	t1,32(sp)
   12a48:	00f71463          	bne	a4,a5,12a50 <_vfprintf_r+0x4ba>
   12a4c:	4800106f          	j	13ecc <_vfprintf_r+0x1936>
   12a50:	11bc                	addi	a5,sp,232
   12a52:	8762                	mv	a4,s8
   12a54:	0f810893          	addi	a7,sp,248
   12a58:	0ec10813          	addi	a6,sp,236
   12a5c:	4689                	li	a3,2
   12a5e:	85ee                	mv	a1,s11
   12a60:	865e                	mv	a2,s7
   12a62:	8552                	mv	a0,s4
   12a64:	6a6050ef          	jal	ra,1810a <_ldtoa_r>
   12a68:	6766                	ld	a4,88(sp)
   12a6a:	04700793          	li	a5,71
   12a6e:	7302                	ld	t1,32(sp)
   12a70:	8caa                	mv	s9,a0
   12a72:	00f70463          	beq	a4,a5,12a7a <_vfprintf_r+0x4e4>
   12a76:	6a80106f          	j	1411e <_vfprintf_r+0x1b88>
   12a7a:	77ea                	ld	a5,184(sp)
   12a7c:	8b85                	andi	a5,a5,1
   12a7e:	c399                	beqz	a5,12a84 <_vfprintf_r+0x4ee>
   12a80:	48e0106f          	j	13f0e <_vfprintf_r+0x1978>
   12a84:	76ee                	ld	a3,248(sp)
   12a86:	419687bb          	subw	a5,a3,s9
   12a8a:	f03e                	sd	a5,32(sp)
   12a8c:	572e                	lw	a4,232(sp)
   12a8e:	04700793          	li	a5,71
   12a92:	e8ba                	sd	a4,80(sp)
   12a94:	6766                	ld	a4,88(sp)
   12a96:	00f71463          	bne	a4,a5,12a9e <_vfprintf_r+0x508>
   12a9a:	1e20106f          	j	13c7c <_vfprintf_r+0x16e6>
   12a9e:	6766                	ld	a4,88(sp)
   12aa0:	04600793          	li	a5,70
   12aa4:	00f71463          	bne	a4,a5,12aac <_vfprintf_r+0x516>
   12aa8:	3840106f          	j	13e2c <_vfprintf_r+0x1896>
   12aac:	67c6                	ld	a5,80(sp)
   12aae:	65e6                	ld	a1,88(sp)
   12ab0:	04100613          	li	a2,65
   12ab4:	37fd                	addiw	a5,a5,-1
   12ab6:	d5be                	sw	a5,232(sp)
   12ab8:	0ffd7713          	andi	a4,s10,255
   12abc:	4681                	li	a3,0
   12abe:	00c59663          	bne	a1,a2,12aca <_vfprintf_r+0x534>
   12ac2:	273d                	addiw	a4,a4,15
   12ac4:	0ff77713          	andi	a4,a4,255
   12ac8:	4685                	li	a3,1
   12aca:	0ee10823          	sb	a4,240(sp)
   12ace:	02b00713          	li	a4,43
   12ad2:	0007d763          	bgez	a5,12ae0 <_vfprintf_r+0x54a>
   12ad6:	6746                	ld	a4,80(sp)
   12ad8:	4785                	li	a5,1
   12ada:	9f99                	subw	a5,a5,a4
   12adc:	02d00713          	li	a4,45
   12ae0:	0ee108a3          	sb	a4,241(sp)
   12ae4:	4725                	li	a4,9
   12ae6:	00f74463          	blt	a4,a5,12aee <_vfprintf_r+0x558>
   12aea:	4a20106f          	j	13f8c <_vfprintf_r+0x19f6>
   12aee:	0ff10513          	addi	a0,sp,255
   12af2:	85aa                	mv	a1,a0
   12af4:	46a9                	li	a3,10
   12af6:	06300e93          	li	t4,99
   12afa:	02d7e73b          	remw	a4,a5,a3
   12afe:	862e                	mv	a2,a1
   12b00:	88be                	mv	a7,a5
   12b02:	15fd                	addi	a1,a1,-1
   12b04:	0307071b          	addiw	a4,a4,48
   12b08:	fee60fa3          	sb	a4,-1(a2)
   12b0c:	02d7c7bb          	divw	a5,a5,a3
   12b10:	ff1ec5e3          	blt	t4,a7,12afa <_vfprintf_r+0x564>
   12b14:	0307879b          	addiw	a5,a5,48
   12b18:	0ff7f693          	andi	a3,a5,255
   12b1c:	fed58fa3          	sb	a3,-1(a1)
   12b20:	ffe60793          	addi	a5,a2,-2
   12b24:	00a7e463          	bltu	a5,a0,12b2c <_vfprintf_r+0x596>
   12b28:	5de0106f          	j	14106 <_vfprintf_r+0x1b70>
   12b2c:	0f210713          	addi	a4,sp,242
   12b30:	a019                	j	12b36 <_vfprintf_r+0x5a0>
   12b32:	0007c683          	lbu	a3,0(a5)
   12b36:	00d70023          	sb	a3,0(a4) # ffffffffffffe000 <__BSS_END__+0xffffffffffb93b20>
   12b3a:	0785                	addi	a5,a5,1
   12b3c:	0705                	addi	a4,a4,1
   12b3e:	fea79ae3          	bne	a5,a0,12b32 <_vfprintf_r+0x59c>
   12b42:	10110793          	addi	a5,sp,257
   12b46:	0f210713          	addi	a4,sp,242
   12b4a:	8f91                	sub	a5,a5,a2
   12b4c:	97ba                	add	a5,a5,a4
   12b4e:	1998                	addi	a4,sp,240
   12b50:	9f99                	subw	a5,a5,a4
   12b52:	fcbe                	sd	a5,120(sp)
   12b54:	77e6                	ld	a5,120(sp)
   12b56:	7682                	ld	a3,32(sp)
   12b58:	4705                	li	a4,1
   12b5a:	00f68bbb          	addw	s7,a3,a5
   12b5e:	87de                	mv	a5,s7
   12b60:	00d74463          	blt	a4,a3,12b68 <_vfprintf_r+0x5d2>
   12b64:	5360106f          	j	1409a <_vfprintf_r+0x1b04>
   12b68:	7726                	ld	a4,104(sp)
   12b6a:	00e78bbb          	addw	s7,a5,a4
   12b6e:	77ea                	ld	a5,184(sp)
   12b70:	fffbc993          	not	s3,s7
   12b74:	43f9d993          	srai	s3,s3,0x3f
   12b78:	bff7f493          	andi	s1,a5,-1025
   12b7c:	2481                	sext.w	s1,s1
   12b7e:	013bf9b3          	and	s3,s7,s3
   12b82:	1004e493          	ori	s1,s1,256
   12b86:	2981                	sext.w	s3,s3
   12b88:	e482                	sd	zero,72(sp)
   12b8a:	ec82                	sd	zero,88(sp)
   12b8c:	e882                	sd	zero,80(sp)
   12b8e:	67ae                	ld	a5,200(sp)
   12b90:	e399                	bnez	a5,12b96 <_vfprintf_r+0x600>
   12b92:	1400106f          	j	13cd2 <_vfprintf_r+0x173c>
   12b96:	02d00793          	li	a5,45
   12b9a:	0cf10fa3          	sb	a5,223(sp)
   12b9e:	4c01                	li	s8,0
   12ba0:	2985                	addiw	s3,s3,1
   12ba2:	b6c9                	j	12764 <_vfprintf_r+0x1ce>
   12ba4:	0a10                	addi	a2,sp,272
   12ba6:	85ca                	mv	a1,s2
   12ba8:	8552                	mv	a0,s4
   12baa:	f816                	sd	t0,48(sp)
   12bac:	20e0b0ef          	jal	ra,1ddba <__sprint_r>
   12bb0:	5c051563          	bnez	a0,1317a <_vfprintf_r+0xbe4>
   12bb4:	7792                	ld	a5,288(sp)
   12bb6:	72c2                	ld	t0,48(sp)
   12bb8:	835a                	mv	t1,s6
   12bba:	bed5                	j	127ae <_vfprintf_r+0x218>
   12bbc:	11812603          	lw	a2,280(sp)
   12bc0:	00178c13          	addi	s8,a5,1
   12bc4:	7782                	ld	a5,32(sp)
   12bc6:	0016071b          	addiw	a4,a2,1
   12bca:	4585                	li	a1,1
   12bcc:	01933023          	sd	s9,0(t1)
   12bd0:	86ba                	mv	a3,a4
   12bd2:	01030b93          	addi	s7,t1,16
   12bd6:	02f5d8e3          	bge	a1,a5,13406 <_vfprintf_r+0xe70>
   12bda:	4605                	li	a2,1
   12bdc:	10d12c23          	sw	a3,280(sp)
   12be0:	00c33423          	sd	a2,8(t1)
   12be4:	f262                	sd	s8,288(sp)
   12be6:	469d                	li	a3,7
   12be8:	2ce6cce3          	blt	a3,a4,136c0 <_vfprintf_r+0x112a>
   12bec:	77a6                	ld	a5,104(sp)
   12bee:	0017069b          	addiw	a3,a4,1
   12bf2:	7746                	ld	a4,112(sp)
   12bf4:	9c3e                	add	s8,s8,a5
   12bf6:	00fbb423          	sd	a5,8(s7)
   12bfa:	00ebb023          	sd	a4,0(s7)
   12bfe:	10d12c23          	sw	a3,280(sp)
   12c02:	0006871b          	sext.w	a4,a3
   12c06:	f262                	sd	s8,288(sp)
   12c08:	469d                	li	a3,7
   12c0a:	0bc1                	addi	s7,s7,16
   12c0c:	2ce6c7e3          	blt	a3,a4,136da <_vfprintf_r+0x1144>
   12c10:	6512                	ld	a0,256(sp)
   12c12:	65b2                	ld	a1,264(sp)
   12c14:	00170e1b          	addiw	t3,a4,1
   12c18:	4601                	li	a2,0
   12c1a:	4681                	li	a3,0
   12c1c:	d872                	sw	t3,48(sp)
   12c1e:	fc3a                	sd	a4,56(sp)
   12c20:	7360f0ef          	jal	ra,22356 <__eqtf2>
   12c24:	5e42                	lw	t3,48(sp)
   12c26:	7782                	ld	a5,32(sp)
   12c28:	010b8313          	addi	t1,s7,16
   12c2c:	000e061b          	sext.w	a2,t3
   12c30:	fff78d1b          	addiw	s10,a5,-1
   12c34:	7e050a63          	beqz	a0,13428 <_vfprintf_r+0xe92>
   12c38:	001c8813          	addi	a6,s9,1
   12c3c:	9c6a                	add	s8,s8,s10
   12c3e:	010bb023          	sd	a6,0(s7)
   12c42:	01abb423          	sd	s10,8(s7)
   12c46:	f262                	sd	s8,288(sp)
   12c48:	11c12c23          	sw	t3,280(sp)
   12c4c:	469d                	li	a3,7
   12c4e:	14c6c8e3          	blt	a3,a2,1359e <_vfprintf_r+0x1008>
   12c52:	7762                	ld	a4,56(sp)
   12c54:	020b8693          	addi	a3,s7,32
   12c58:	8b9a                	mv	s7,t1
   12c5a:	0027061b          	addiw	a2,a4,2
   12c5e:	8336                	mv	t1,a3
   12c60:	76e6                	ld	a3,120(sp)
   12c62:	1998                	addi	a4,sp,240
   12c64:	00ebb023          	sd	a4,0(s7)
   12c68:	018687b3          	add	a5,a3,s8
   12c6c:	00dbb423          	sd	a3,8(s7)
   12c70:	f23e                	sd	a5,288(sp)
   12c72:	10c12c23          	sw	a2,280(sp)
   12c76:	471d                	li	a4,7
   12c78:	b8c75de3          	bge	a4,a2,12812 <_vfprintf_r+0x27c>
   12c7c:	0a10                	addi	a2,sp,272
   12c7e:	85ca                	mv	a1,s2
   12c80:	8552                	mv	a0,s4
   12c82:	1380b0ef          	jal	ra,1ddba <__sprint_r>
   12c86:	4e051a63          	bnez	a0,1317a <_vfprintf_r+0xbe4>
   12c8a:	7792                	ld	a5,288(sp)
   12c8c:	835a                	mv	t1,s6
   12c8e:	b651                	j	12812 <_vfprintf_r+0x27c>
   12c90:	0104f793          	andi	a5,s1,16
   12c94:	02079ce3          	bnez	a5,134cc <_vfprintf_r+0xf36>
   12c98:	66c2                	ld	a3,16(sp)
   12c9a:	0404f793          	andi	a5,s1,64
   12c9e:	0006a983          	lw	s3,0(a3)
   12ca2:	3e0784e3          	beqz	a5,1388a <_vfprintf_r+0x12f4>
   12ca6:	19c2                	slli	s3,s3,0x30
   12ca8:	0309d993          	srli	s3,s3,0x30
   12cac:	b15d                	j	12952 <_vfprintf_r+0x3bc>
   12cae:	0104f793          	andi	a5,s1,16
   12cb2:	000798e3          	bnez	a5,134c2 <_vfprintf_r+0xf2c>
   12cb6:	0404f793          	andi	a5,s1,64
   12cba:	3a0787e3          	beqz	a5,13868 <_vfprintf_r+0x12d2>
   12cbe:	67c2                	ld	a5,16(sp)
   12cc0:	00079983          	lh	s3,0(a5)
   12cc4:	87ce                	mv	a5,s3
   12cc6:	c207d9e3          	bgez	a5,128f8 <_vfprintf_r+0x362>
   12cca:	02d00793          	li	a5,45
   12cce:	0cf10fa3          	sb	a5,223(sp)
   12cd2:	e83a                	sd	a4,16(sp)
   12cd4:	577d                	li	a4,-1
   12cd6:	413009b3          	neg	s3,s3
   12cda:	8da6                	mv	s11,s1
   12cdc:	4785                	li	a5,1
   12cde:	c8ec15e3          	bne	s8,a4,12968 <_vfprintf_r+0x3d2>
   12ce2:	4705                	li	a4,1
   12ce4:	4ae78863          	beq	a5,a4,13194 <_vfprintf_r+0xbfe>
   12ce8:	4709                	li	a4,2
   12cea:	26e78963          	beq	a5,a4,12f5c <_vfprintf_r+0x9c6>
   12cee:	18c10b93          	addi	s7,sp,396
   12cf2:	8cde                	mv	s9,s7
   12cf4:	0079f793          	andi	a5,s3,7
   12cf8:	03078793          	addi	a5,a5,48
   12cfc:	fefc8fa3          	sb	a5,-1(s9)
   12d00:	0039d993          	srli	s3,s3,0x3
   12d04:	8766                	mv	a4,s9
   12d06:	1cfd                	addi	s9,s9,-1
   12d08:	fe0996e3          	bnez	s3,12cf4 <_vfprintf_r+0x75e>
   12d0c:	001df693          	andi	a3,s11,1
   12d10:	26068663          	beqz	a3,12f7c <_vfprintf_r+0x9e6>
   12d14:	03000693          	li	a3,48
   12d18:	26d78263          	beq	a5,a3,12f7c <_vfprintf_r+0x9e6>
   12d1c:	1779                	addi	a4,a4,-2
   12d1e:	fedc8fa3          	sb	a3,-1(s9)
   12d22:	40eb8bbb          	subw	s7,s7,a4
   12d26:	84ee                	mv	s1,s11
   12d28:	8cba                	mv	s9,a4
   12d2a:	bec5                	j	1291a <_vfprintf_r+0x384>
   12d2c:	8552                	mv	a0,s4
   12d2e:	f73fd0ef          	jal	ra,10ca0 <__sinit>
   12d32:	b0d1                	j	125f6 <_vfprintf_r+0x60>
   12d34:	67c2                	ld	a5,16(sp)
   12d36:	0c010fa3          	sb	zero,223(sp)
   12d3a:	0007bc83          	ld	s9,0(a5)
   12d3e:	00878d93          	addi	s11,a5,8
   12d42:	100c84e3          	beqz	s9,1364a <_vfprintf_r+0x10b4>
   12d46:	57fd                	li	a5,-1
   12d48:	2cfc0de3          	beq	s8,a5,13822 <_vfprintf_r+0x128c>
   12d4c:	8662                	mv	a2,s8
   12d4e:	4581                	li	a1,0
   12d50:	8566                	mv	a0,s9
   12d52:	e81a                	sd	t1,16(sp)
   12d54:	45c060ef          	jal	ra,191b0 <memchr>
   12d58:	ec2a                	sd	a0,24(sp)
   12d5a:	6342                	ld	t1,16(sp)
   12d5c:	e119                	bnez	a0,12d62 <_vfprintf_r+0x7cc>
   12d5e:	05e0106f          	j	13dbc <_vfprintf_r+0x1826>
   12d62:	67e2                	ld	a5,24(sp)
   12d64:	e86e                	sd	s11,16(sp)
   12d66:	ec02                	sd	zero,24(sp)
   12d68:	41978bbb          	subw	s7,a5,s9
   12d6c:	0df14783          	lbu	a5,223(sp)
   12d70:	fffbc993          	not	s3,s7
   12d74:	43f9d993          	srai	s3,s3,0x3f
   12d78:	e482                	sd	zero,72(sp)
   12d7a:	ec82                	sd	zero,88(sp)
   12d7c:	e882                	sd	zero,80(sp)
   12d7e:	0179f9b3          	and	s3,s3,s7
   12d82:	4c01                	li	s8,0
   12d84:	ba0799e3          	bnez	a5,12936 <_vfprintf_r+0x3a0>
   12d88:	baf1                	j	12764 <_vfprintf_r+0x1ce>
   12d8a:	6742                	ld	a4,16(sp)
   12d8c:	0c010fa3          	sb	zero,223(sp)
   12d90:	4985                	li	s3,1
   12d92:	431c                	lw	a5,0(a4)
   12d94:	0721                	addi	a4,a4,8
   12d96:	e83a                	sd	a4,16(sp)
   12d98:	12f10423          	sb	a5,296(sp)
   12d9c:	4b85                	li	s7,1
   12d9e:	12810c93          	addi	s9,sp,296
   12da2:	ba65                	j	1275a <_vfprintf_r+0x1c4>
   12da4:	0084e493          	ori	s1,s1,8
   12da8:	00044e03          	lbu	t3,0(s0)
   12dac:	2481                	sext.w	s1,s1
   12dae:	b281                	j	126ee <_vfprintf_r+0x158>
   12db0:	0104e493          	ori	s1,s1,16
   12db4:	00048d9b          	sext.w	s11,s1
   12db8:	66c2                	ld	a3,16(sp)
   12dba:	020df793          	andi	a5,s11,32
   12dbe:	00868713          	addi	a4,a3,8
   12dc2:	6a078e63          	beqz	a5,1347e <_vfprintf_r+0xee8>
   12dc6:	0006b983          	ld	s3,0(a3)
   12dca:	4785                	li	a5,1
   12dcc:	e83a                	sd	a4,16(sp)
   12dce:	be41                	j	1295e <_vfprintf_r+0x3c8>
   12dd0:	0204e493          	ori	s1,s1,32
   12dd4:	00044e03          	lbu	t3,0(s0)
   12dd8:	2481                	sext.w	s1,s1
   12dda:	ba11                	j	126ee <_vfprintf_r+0x158>
   12ddc:	0804e493          	ori	s1,s1,128
   12de0:	00044e03          	lbu	t3,0(s0)
   12de4:	2481                	sext.w	s1,s1
   12de6:	b221                	j	126ee <_vfprintf_r+0x158>
   12de8:	00044d03          	lbu	s10,0(s0)
   12dec:	00140713          	addi	a4,s0,1
   12df0:	00cd1463          	bne	s10,a2,12df8 <_vfprintf_r+0x862>
   12df4:	2f20106f          	j	140e6 <_vfprintf_r+0x1b50>
   12df8:	fd0d079b          	addiw	a5,s10,-48
   12dfc:	843a                	mv	s0,a4
   12dfe:	4c01                	li	s8,0
   12e00:	8efdece3          	bltu	s11,a5,126f8 <_vfprintf_r+0x162>
   12e04:	00044d03          	lbu	s10,0(s0)
   12e08:	002c169b          	slliw	a3,s8,0x2
   12e0c:	018686bb          	addw	a3,a3,s8
   12e10:	0016969b          	slliw	a3,a3,0x1
   12e14:	00f68c3b          	addw	s8,a3,a5
   12e18:	fd0d079b          	addiw	a5,s10,-48
   12e1c:	0405                	addi	s0,s0,1
   12e1e:	fefdf3e3          	bgeu	s11,a5,12e04 <_vfprintf_r+0x86e>
   12e22:	b8d9                	j	126f8 <_vfprintf_r+0x162>
   12e24:	00044e03          	lbu	t3,0(s0)
   12e28:	0044e493          	ori	s1,s1,4
   12e2c:	2481                	sext.w	s1,s1
   12e2e:	b0c1                	j	126ee <_vfprintf_r+0x158>
   12e30:	02b00793          	li	a5,43
   12e34:	00044e03          	lbu	t3,0(s0)
   12e38:	0cf10fa3          	sb	a5,223(sp)
   12e3c:	b84d                	j	126ee <_vfprintf_r+0x158>
   12e3e:	67c2                	ld	a5,16(sp)
   12e40:	00044e03          	lbu	t3,0(s0)
   12e44:	0007aa83          	lw	s5,0(a5)
   12e48:	07a1                	addi	a5,a5,8
   12e4a:	e83e                	sd	a5,16(sp)
   12e4c:	8a0ad1e3          	bgez	s5,126ee <_vfprintf_r+0x158>
   12e50:	41500abb          	negw	s5,s5
   12e54:	bfd1                	j	12e28 <_vfprintf_r+0x892>
   12e56:	8552                	mv	a0,s4
   12e58:	ec1a                	sd	t1,24(sp)
   12e5a:	148060ef          	jal	ra,18fa2 <_localeconv_r>
   12e5e:	651c                	ld	a5,8(a0)
   12e60:	853e                	mv	a0,a5
   12e62:	e53e                	sd	a5,136(sp)
   12e64:	e9eff0ef          	jal	ra,12502 <strlen>
   12e68:	87aa                	mv	a5,a0
   12e6a:	8552                	mv	a0,s4
   12e6c:	8d3e                	mv	s10,a5
   12e6e:	e13e                	sd	a5,128(sp)
   12e70:	132060ef          	jal	ra,18fa2 <_localeconv_r>
   12e74:	691c                	ld	a5,16(a0)
   12e76:	6362                	ld	t1,24(sp)
   12e78:	00044e03          	lbu	t3,0(s0)
   12e7c:	f0be                	sd	a5,96(sp)
   12e7e:	860d08e3          	beqz	s10,126ee <_vfprintf_r+0x158>
   12e82:	860786e3          	beqz	a5,126ee <_vfprintf_r+0x158>
   12e86:	0007c783          	lbu	a5,0(a5)
   12e8a:	860782e3          	beqz	a5,126ee <_vfprintf_r+0x158>
   12e8e:	4004e493          	ori	s1,s1,1024
   12e92:	2481                	sext.w	s1,s1
   12e94:	b8a9                	j	126ee <_vfprintf_r+0x158>
   12e96:	0014e493          	ori	s1,s1,1
   12e9a:	00044e03          	lbu	t3,0(s0)
   12e9e:	2481                	sext.w	s1,s1
   12ea0:	b0b9                	j	126ee <_vfprintf_r+0x158>
   12ea2:	0df14783          	lbu	a5,223(sp)
   12ea6:	00044e03          	lbu	t3,0(s0)
   12eaa:	840792e3          	bnez	a5,126ee <_vfprintf_r+0x158>
   12eae:	02000793          	li	a5,32
   12eb2:	0cf10fa3          	sb	a5,223(sp)
   12eb6:	839ff06f          	j	126ee <_vfprintf_r+0x158>
   12eba:	6742                	ld	a4,16(sp)
   12ebc:	77e1                	lui	a5,0xffff8
   12ebe:	8307c793          	xori	a5,a5,-2000
   12ec2:	0ef11023          	sh	a5,224(sp)
   12ec6:	00870793          	addi	a5,a4,8
   12eca:	e83e                	sd	a5,16(sp)
   12ecc:	000247b7          	lui	a5,0x24
   12ed0:	90878793          	addi	a5,a5,-1784 # 23908 <__clzdi2+0x1cc>
   12ed4:	0024e493          	ori	s1,s1,2
   12ed8:	f43e                	sd	a5,40(sp)
   12eda:	00073983          	ld	s3,0(a4)
   12ede:	00048d9b          	sext.w	s11,s1
   12ee2:	4789                	li	a5,2
   12ee4:	07800d13          	li	s10,120
   12ee8:	bc9d                	j	1295e <_vfprintf_r+0x3c8>
   12eea:	66c2                	ld	a3,16(sp)
   12eec:	0204f793          	andi	a5,s1,32
   12ef0:	6298                	ld	a4,0(a3)
   12ef2:	06a1                	addi	a3,a3,8
   12ef4:	e836                	sd	a3,16(sp)
   12ef6:	5a079a63          	bnez	a5,134aa <_vfprintf_r+0xf14>
   12efa:	0104f793          	andi	a5,s1,16
   12efe:	5a079663          	bnez	a5,134aa <_vfprintf_r+0xf14>
   12f02:	0404f793          	andi	a5,s1,64
   12f06:	38079ce3          	bnez	a5,13a9e <_vfprintf_r+0x1508>
   12f0a:	2004f493          	andi	s1,s1,512
   12f0e:	67a2                	ld	a5,8(sp)
   12f10:	e099                	bnez	s1,12f16 <_vfprintf_r+0x980>
   12f12:	0720106f          	j	13f84 <_vfprintf_r+0x19ee>
   12f16:	00f70023          	sb	a5,0(a4)
   12f1a:	8ca2                	mv	s9,s0
   12f1c:	b225                	j	12844 <_vfprintf_r+0x2ae>
   12f1e:	00044e03          	lbu	t3,0(s0)
   12f22:	06c00793          	li	a5,108
   12f26:	6efe0a63          	beq	t3,a5,1361a <_vfprintf_r+0x1084>
   12f2a:	0104e493          	ori	s1,s1,16
   12f2e:	2481                	sext.w	s1,s1
   12f30:	fbeff06f          	j	126ee <_vfprintf_r+0x158>
   12f34:	00044e03          	lbu	t3,0(s0)
   12f38:	06800793          	li	a5,104
   12f3c:	6cfe0763          	beq	t3,a5,1360a <_vfprintf_r+0x1074>
   12f40:	0404e493          	ori	s1,s1,64
   12f44:	2481                	sext.w	s1,s1
   12f46:	fa8ff06f          	j	126ee <_vfprintf_r+0x158>
   12f4a:	4705                	li	a4,1
   12f4c:	00e79463          	bne	a5,a4,12f54 <_vfprintf_r+0x9be>
   12f50:	7b90006f          	j	13f08 <_vfprintf_r+0x1972>
   12f54:	4709                	li	a4,2
   12f56:	8da6                	mv	s11,s1
   12f58:	d8e79be3          	bne	a5,a4,12cee <_vfprintf_r+0x758>
   12f5c:	18c10b93          	addi	s7,sp,396
   12f60:	8cde                	mv	s9,s7
   12f62:	7722                	ld	a4,40(sp)
   12f64:	00f9f793          	andi	a5,s3,15
   12f68:	1cfd                	addi	s9,s9,-1
   12f6a:	97ba                	add	a5,a5,a4
   12f6c:	0007c783          	lbu	a5,0(a5)
   12f70:	0049d993          	srli	s3,s3,0x4
   12f74:	00fc8023          	sb	a5,0(s9)
   12f78:	fe0995e3          	bnez	s3,12f62 <_vfprintf_r+0x9cc>
   12f7c:	419b8bbb          	subw	s7,s7,s9
   12f80:	84ee                	mv	s1,s11
   12f82:	ba61                	j	1291a <_vfprintf_r+0x384>
   12f84:	06500713          	li	a4,101
   12f88:	c3a75ae3          	bge	a4,s10,12bbc <_vfprintf_r+0x626>
   12f8c:	6512                	ld	a0,256(sp)
   12f8e:	65b2                	ld	a1,264(sp)
   12f90:	4601                	li	a2,0
   12f92:	4681                	li	a3,0
   12f94:	fc3e                	sd	a5,56(sp)
   12f96:	f81a                	sd	t1,48(sp)
   12f98:	3be0f0ef          	jal	ra,22356 <__eqtf2>
   12f9c:	7342                	ld	t1,48(sp)
   12f9e:	77e2                	ld	a5,56(sp)
   12fa0:	32051e63          	bnez	a0,132dc <_vfprintf_r+0xd46>
   12fa4:	11812703          	lw	a4,280(sp)
   12fa8:	000246b7          	lui	a3,0x24
   12fac:	92868693          	addi	a3,a3,-1752 # 23928 <__clzdi2+0x1ec>
   12fb0:	2705                	addiw	a4,a4,1
   12fb2:	00d33023          	sd	a3,0(t1)
   12fb6:	0785                	addi	a5,a5,1
   12fb8:	4685                	li	a3,1
   12fba:	00d33423          	sd	a3,8(t1)
   12fbe:	10e12c23          	sw	a4,280(sp)
   12fc2:	0007069b          	sext.w	a3,a4
   12fc6:	f23e                	sd	a5,288(sp)
   12fc8:	471d                	li	a4,7
   12fca:	0341                	addi	t1,t1,16
   12fcc:	7ad74063          	blt	a4,a3,1376c <_vfprintf_r+0x11d6>
   12fd0:	572e                	lw	a4,232(sp)
   12fd2:	7682                	ld	a3,32(sp)
   12fd4:	4cd75663          	bge	a4,a3,134a0 <_vfprintf_r+0xf0a>
   12fd8:	7746                	ld	a4,112(sp)
   12fda:	76a6                	ld	a3,104(sp)
   12fdc:	0341                	addi	t1,t1,16
   12fde:	fee33823          	sd	a4,-16(t1)
   12fe2:	11812703          	lw	a4,280(sp)
   12fe6:	97b6                	add	a5,a5,a3
   12fe8:	fed33c23          	sd	a3,-8(t1)
   12fec:	2705                	addiw	a4,a4,1
   12fee:	0007069b          	sext.w	a3,a4
   12ff2:	10e12c23          	sw	a4,280(sp)
   12ff6:	f23e                	sd	a5,288(sp)
   12ff8:	471d                	li	a4,7
   12ffa:	62d74863          	blt	a4,a3,1362a <_vfprintf_r+0x1094>
   12ffe:	7702                	ld	a4,32(sp)
   13000:	fff70b9b          	addiw	s7,a4,-1
   13004:	817057e3          	blez	s7,12812 <_vfprintf_r+0x27c>
   13008:	000248b7          	lui	a7,0x24
   1300c:	46c1                	li	a3,16
   1300e:	11812703          	lw	a4,280(sp)
   13012:	ab088d93          	addi	s11,a7,-1360 # 23ab0 <zeroes.0>
   13016:	4cc1                	li	s9,16
   13018:	4c1d                	li	s8,7
   1301a:	0176c663          	blt	a3,s7,13026 <_vfprintf_r+0xa90>
   1301e:	a795                	j	13782 <_vfprintf_r+0x11ec>
   13020:	3bc1                	addiw	s7,s7,-16
   13022:	777cd063          	bge	s9,s7,13782 <_vfprintf_r+0x11ec>
   13026:	2705                	addiw	a4,a4,1
   13028:	07c1                	addi	a5,a5,16
   1302a:	01b33023          	sd	s11,0(t1)
   1302e:	01933423          	sd	s9,8(t1)
   13032:	f23e                	sd	a5,288(sp)
   13034:	10e12c23          	sw	a4,280(sp)
   13038:	0341                	addi	t1,t1,16
   1303a:	feec53e3          	bge	s8,a4,13020 <_vfprintf_r+0xa8a>
   1303e:	0a10                	addi	a2,sp,272
   13040:	85ca                	mv	a1,s2
   13042:	8552                	mv	a0,s4
   13044:	5770a0ef          	jal	ra,1ddba <__sprint_r>
   13048:	12051963          	bnez	a0,1317a <_vfprintf_r+0xbe4>
   1304c:	7792                	ld	a5,288(sp)
   1304e:	11812703          	lw	a4,280(sp)
   13052:	835a                	mv	t1,s6
   13054:	b7f1                	j	13020 <_vfprintf_r+0xa8a>
   13056:	413a86bb          	subw	a3,s5,s3
   1305a:	f8d05363          	blez	a3,127e0 <_vfprintf_r+0x24a>
   1305e:	000248b7          	lui	a7,0x24
   13062:	4641                	li	a2,16
   13064:	11812703          	lw	a4,280(sp)
   13068:	ab088d93          	addi	s11,a7,-1360 # 23ab0 <zeroes.0>
   1306c:	4f41                	li	t5,16
   1306e:	4f9d                	li	t6,7
   13070:	00d64663          	blt	a2,a3,1307c <_vfprintf_r+0xae6>
   13074:	a089                	j	130b6 <_vfprintf_r+0xb20>
   13076:	36c1                	addiw	a3,a3,-16
   13078:	02df5f63          	bge	t5,a3,130b6 <_vfprintf_r+0xb20>
   1307c:	2705                	addiw	a4,a4,1
   1307e:	07c1                	addi	a5,a5,16
   13080:	01b33023          	sd	s11,0(t1)
   13084:	01e33423          	sd	t5,8(t1)
   13088:	f23e                	sd	a5,288(sp)
   1308a:	10e12c23          	sw	a4,280(sp)
   1308e:	0341                	addi	t1,t1,16
   13090:	feefd3e3          	bge	t6,a4,13076 <_vfprintf_r+0xae0>
   13094:	0a10                	addi	a2,sp,272
   13096:	85ca                	mv	a1,s2
   13098:	8552                	mv	a0,s4
   1309a:	f836                	sd	a3,48(sp)
   1309c:	51f0a0ef          	jal	ra,1ddba <__sprint_r>
   130a0:	ed69                	bnez	a0,1317a <_vfprintf_r+0xbe4>
   130a2:	76c2                	ld	a3,48(sp)
   130a4:	4f41                	li	t5,16
   130a6:	7792                	ld	a5,288(sp)
   130a8:	36c1                	addiw	a3,a3,-16
   130aa:	11812703          	lw	a4,280(sp)
   130ae:	835a                	mv	t1,s6
   130b0:	4f9d                	li	t6,7
   130b2:	fcdf45e3          	blt	t5,a3,1307c <_vfprintf_r+0xae6>
   130b6:	2705                	addiw	a4,a4,1
   130b8:	97b6                	add	a5,a5,a3
   130ba:	00d33423          	sd	a3,8(t1)
   130be:	01b33023          	sd	s11,0(t1)
   130c2:	0007069b          	sext.w	a3,a4
   130c6:	10e12c23          	sw	a4,280(sp)
   130ca:	f23e                	sd	a5,288(sp)
   130cc:	471d                	li	a4,7
   130ce:	0341                	addi	t1,t1,16
   130d0:	f0d75863          	bge	a4,a3,127e0 <_vfprintf_r+0x24a>
   130d4:	0a10                	addi	a2,sp,272
   130d6:	85ca                	mv	a1,s2
   130d8:	8552                	mv	a0,s4
   130da:	4e10a0ef          	jal	ra,1ddba <__sprint_r>
   130de:	ed51                	bnez	a0,1317a <_vfprintf_r+0xbe4>
   130e0:	7792                	ld	a5,288(sp)
   130e2:	835a                	mv	t1,s6
   130e4:	efcff06f          	j	127e0 <_vfprintf_r+0x24a>
   130e8:	000248b7          	lui	a7,0x24
   130ec:	4641                	li	a2,16
   130ee:	11812703          	lw	a4,280(sp)
   130f2:	ab088d93          	addi	s11,a7,-1360 # 23ab0 <zeroes.0>
   130f6:	4ec1                	li	t4,16
   130f8:	4f1d                	li	t5,7
   130fa:	01864663          	blt	a2,s8,13106 <_vfprintf_r+0xb70>
   130fe:	a83d                	j	1313c <_vfprintf_r+0xba6>
   13100:	3c41                	addiw	s8,s8,-16
   13102:	038edd63          	bge	t4,s8,1313c <_vfprintf_r+0xba6>
   13106:	2705                	addiw	a4,a4,1
   13108:	07c1                	addi	a5,a5,16
   1310a:	01b33023          	sd	s11,0(t1)
   1310e:	01d33423          	sd	t4,8(t1)
   13112:	f23e                	sd	a5,288(sp)
   13114:	10e12c23          	sw	a4,280(sp)
   13118:	0341                	addi	t1,t1,16
   1311a:	feef53e3          	bge	t5,a4,13100 <_vfprintf_r+0xb6a>
   1311e:	0a10                	addi	a2,sp,272
   13120:	85ca                	mv	a1,s2
   13122:	8552                	mv	a0,s4
   13124:	4970a0ef          	jal	ra,1ddba <__sprint_r>
   13128:	e929                	bnez	a0,1317a <_vfprintf_r+0xbe4>
   1312a:	4ec1                	li	t4,16
   1312c:	3c41                	addiw	s8,s8,-16
   1312e:	7792                	ld	a5,288(sp)
   13130:	11812703          	lw	a4,280(sp)
   13134:	835a                	mv	t1,s6
   13136:	4f1d                	li	t5,7
   13138:	fd8ec7e3          	blt	t4,s8,13106 <_vfprintf_r+0xb70>
   1313c:	0017069b          	addiw	a3,a4,1
   13140:	97e2                	add	a5,a5,s8
   13142:	01b33023          	sd	s11,0(t1)
   13146:	01833423          	sd	s8,8(t1)
   1314a:	f23e                	sd	a5,288(sp)
   1314c:	10d12c23          	sw	a3,280(sp)
   13150:	471d                	li	a4,7
   13152:	0341                	addi	t1,t1,16
   13154:	e8d75a63          	bge	a4,a3,127e8 <_vfprintf_r+0x252>
   13158:	0a10                	addi	a2,sp,272
   1315a:	85ca                	mv	a1,s2
   1315c:	8552                	mv	a0,s4
   1315e:	45d0a0ef          	jal	ra,1ddba <__sprint_r>
   13162:	ed01                	bnez	a0,1317a <_vfprintf_r+0xbe4>
   13164:	7792                	ld	a5,288(sp)
   13166:	835a                	mv	t1,s6
   13168:	e80ff06f          	j	127e8 <_vfprintf_r+0x252>
   1316c:	0a10                	addi	a2,sp,272
   1316e:	85ca                	mv	a1,s2
   13170:	8552                	mv	a0,s4
   13172:	4490a0ef          	jal	ra,1ddba <__sprint_r>
   13176:	ea050d63          	beqz	a0,12830 <_vfprintf_r+0x29a>
   1317a:	67e2                	ld	a5,24(sp)
   1317c:	ec078c63          	beqz	a5,12854 <_vfprintf_r+0x2be>
   13180:	85be                	mv	a1,a5
   13182:	8552                	mv	a0,s4
   13184:	d9dfd0ef          	jal	ra,10f20 <_free_r>
   13188:	eccff06f          	j	12854 <_vfprintf_r+0x2be>
   1318c:	4705                	li	a4,1
   1318e:	8da6                	mv	s11,s1
   13190:	b4e79ce3          	bne	a5,a4,12ce8 <_vfprintf_r+0x752>
   13194:	47a5                	li	a5,9
   13196:	3737e063          	bltu	a5,s3,134f6 <_vfprintf_r+0xf60>
   1319a:	0309899b          	addiw	s3,s3,48
   1319e:	193105a3          	sb	s3,395(sp)
   131a2:	84ee                	mv	s1,s11
   131a4:	4b85                	li	s7,1
   131a6:	18b10c93          	addi	s9,sp,395
   131aa:	f70ff06f          	j	1291a <_vfprintf_r+0x384>
   131ae:	000248b7          	lui	a7,0x24
   131b2:	4641                	li	a2,16
   131b4:	11812703          	lw	a4,280(sp)
   131b8:	aa088893          	addi	a7,a7,-1376 # 23aa0 <blanks.1>
   131bc:	4f41                	li	t5,16
   131be:	439d                	li	t2,7
   131c0:	00d64663          	blt	a2,a3,131cc <_vfprintf_r+0xc36>
   131c4:	a0a9                	j	1320e <_vfprintf_r+0xc78>
   131c6:	36c1                	addiw	a3,a3,-16
   131c8:	04df5363          	bge	t5,a3,1320e <_vfprintf_r+0xc78>
   131cc:	2705                	addiw	a4,a4,1
   131ce:	07c1                	addi	a5,a5,16
   131d0:	01133023          	sd	a7,0(t1)
   131d4:	01e33423          	sd	t5,8(t1)
   131d8:	f23e                	sd	a5,288(sp)
   131da:	10e12c23          	sw	a4,280(sp)
   131de:	0341                	addi	t1,t1,16
   131e0:	fee3d3e3          	bge	t2,a4,131c6 <_vfprintf_r+0xc30>
   131e4:	0a10                	addi	a2,sp,272
   131e6:	85ca                	mv	a1,s2
   131e8:	8552                	mv	a0,s4
   131ea:	e0c6                	sd	a7,64(sp)
   131ec:	fc36                	sd	a3,56(sp)
   131ee:	f816                	sd	t0,48(sp)
   131f0:	3cb0a0ef          	jal	ra,1ddba <__sprint_r>
   131f4:	f159                	bnez	a0,1317a <_vfprintf_r+0xbe4>
   131f6:	76e2                	ld	a3,56(sp)
   131f8:	4f41                	li	t5,16
   131fa:	7792                	ld	a5,288(sp)
   131fc:	36c1                	addiw	a3,a3,-16
   131fe:	11812703          	lw	a4,280(sp)
   13202:	6886                	ld	a7,64(sp)
   13204:	72c2                	ld	t0,48(sp)
   13206:	835a                	mv	t1,s6
   13208:	439d                	li	t2,7
   1320a:	fcdf41e3          	blt	t5,a3,131cc <_vfprintf_r+0xc36>
   1320e:	2705                	addiw	a4,a4,1
   13210:	97b6                	add	a5,a5,a3
   13212:	00d33423          	sd	a3,8(t1)
   13216:	01133023          	sd	a7,0(t1)
   1321a:	0007069b          	sext.w	a3,a4
   1321e:	10e12c23          	sw	a4,280(sp)
   13222:	f23e                	sd	a5,288(sp)
   13224:	471d                	li	a4,7
   13226:	0341                	addi	t1,t1,16
   13228:	d4d75c63          	bge	a4,a3,12780 <_vfprintf_r+0x1ea>
   1322c:	0a10                	addi	a2,sp,272
   1322e:	85ca                	mv	a1,s2
   13230:	8552                	mv	a0,s4
   13232:	f816                	sd	t0,48(sp)
   13234:	3870a0ef          	jal	ra,1ddba <__sprint_r>
   13238:	f129                	bnez	a0,1317a <_vfprintf_r+0xbe4>
   1323a:	7792                	ld	a5,288(sp)
   1323c:	72c2                	ld	t0,48(sp)
   1323e:	835a                	mv	t1,s6
   13240:	d40ff06f          	j	12780 <_vfprintf_r+0x1ea>
   13244:	0a10                	addi	a2,sp,272
   13246:	85ca                	mv	a1,s2
   13248:	8552                	mv	a0,s4
   1324a:	3710a0ef          	jal	ra,1ddba <__sprint_r>
   1324e:	f515                	bnez	a0,1317a <_vfprintf_r+0xbe4>
   13250:	7792                	ld	a5,288(sp)
   13252:	835a                	mv	t1,s6
   13254:	d84ff06f          	j	127d8 <_vfprintf_r+0x242>
   13258:	000248b7          	lui	a7,0x24
   1325c:	46c1                	li	a3,16
   1325e:	11812703          	lw	a4,280(sp)
   13262:	aa088893          	addi	a7,a7,-1376 # 23aa0 <blanks.1>
   13266:	4bc1                	li	s7,16
   13268:	4c1d                	li	s8,7
   1326a:	0096c663          	blt	a3,s1,13276 <_vfprintf_r+0xce0>
   1326e:	a081                	j	132ae <_vfprintf_r+0xd18>
   13270:	34c1                	addiw	s1,s1,-16
   13272:	029bde63          	bge	s7,s1,132ae <_vfprintf_r+0xd18>
   13276:	2705                	addiw	a4,a4,1
   13278:	07c1                	addi	a5,a5,16
   1327a:	01133023          	sd	a7,0(t1)
   1327e:	01733423          	sd	s7,8(t1)
   13282:	f23e                	sd	a5,288(sp)
   13284:	10e12c23          	sw	a4,280(sp)
   13288:	0341                	addi	t1,t1,16
   1328a:	feec53e3          	bge	s8,a4,13270 <_vfprintf_r+0xcda>
   1328e:	0a10                	addi	a2,sp,272
   13290:	85ca                	mv	a1,s2
   13292:	8552                	mv	a0,s4
   13294:	f846                	sd	a7,48(sp)
   13296:	3250a0ef          	jal	ra,1ddba <__sprint_r>
   1329a:	ee0510e3          	bnez	a0,1317a <_vfprintf_r+0xbe4>
   1329e:	34c1                	addiw	s1,s1,-16
   132a0:	7792                	ld	a5,288(sp)
   132a2:	11812703          	lw	a4,280(sp)
   132a6:	78c2                	ld	a7,48(sp)
   132a8:	835a                	mv	t1,s6
   132aa:	fc9bc6e3          	blt	s7,s1,13276 <_vfprintf_r+0xce0>
   132ae:	0017069b          	addiw	a3,a4,1
   132b2:	97a6                	add	a5,a5,s1
   132b4:	01133023          	sd	a7,0(t1)
   132b8:	00933423          	sd	s1,8(t1)
   132bc:	f23e                	sd	a5,288(sp)
   132be:	10d12c23          	sw	a3,280(sp)
   132c2:	471d                	li	a4,7
   132c4:	d4d75d63          	bge	a4,a3,1281e <_vfprintf_r+0x288>
   132c8:	0a10                	addi	a2,sp,272
   132ca:	85ca                	mv	a1,s2
   132cc:	8552                	mv	a0,s4
   132ce:	2ed0a0ef          	jal	ra,1ddba <__sprint_r>
   132d2:	ea0514e3          	bnez	a0,1317a <_vfprintf_r+0xbe4>
   132d6:	7792                	ld	a5,288(sp)
   132d8:	d46ff06f          	j	1281e <_vfprintf_r+0x288>
   132dc:	562e                	lw	a2,232(sp)
   132de:	40c05b63          	blez	a2,136f4 <_vfprintf_r+0x115e>
   132e2:	6746                	ld	a4,80(sp)
   132e4:	7682                	ld	a3,32(sp)
   132e6:	00070b9b          	sext.w	s7,a4
   132ea:	28e6c663          	blt	a3,a4,13576 <_vfprintf_r+0xfe0>
   132ee:	03705263          	blez	s7,13312 <_vfprintf_r+0xd7c>
   132f2:	11812703          	lw	a4,280(sp)
   132f6:	97de                	add	a5,a5,s7
   132f8:	01933023          	sd	s9,0(t1)
   132fc:	0017069b          	addiw	a3,a4,1
   13300:	01733423          	sd	s7,8(t1)
   13304:	f23e                	sd	a5,288(sp)
   13306:	10d12c23          	sw	a3,280(sp)
   1330a:	471d                	li	a4,7
   1330c:	0341                	addi	t1,t1,16
   1330e:	74d74f63          	blt	a4,a3,13a6c <_vfprintf_r+0x14d6>
   13312:	fffbc713          	not	a4,s7
   13316:	977d                	srai	a4,a4,0x3f
   13318:	00ebfbb3          	and	s7,s7,a4
   1331c:	6746                	ld	a4,80(sp)
   1331e:	41770bbb          	subw	s7,a4,s7
   13322:	35704163          	bgtz	s7,13664 <_vfprintf_r+0x10ce>
   13326:	66c6                	ld	a3,80(sp)
   13328:	4004f713          	andi	a4,s1,1024
   1332c:	00dc8c33          	add	s8,s9,a3
   13330:	5a071b63          	bnez	a4,138e6 <_vfprintf_r+0x1350>
   13334:	572e                	lw	a4,232(sp)
   13336:	7682                	ld	a3,32(sp)
   13338:	00d74663          	blt	a4,a3,13344 <_vfprintf_r+0xdae>
   1333c:	0014f693          	andi	a3,s1,1
   13340:	74068263          	beqz	a3,13a84 <_vfprintf_r+0x14ee>
   13344:	76c6                	ld	a3,112(sp)
   13346:	7626                	ld	a2,104(sp)
   13348:	0341                	addi	t1,t1,16
   1334a:	fed33823          	sd	a3,-16(t1)
   1334e:	11812683          	lw	a3,280(sp)
   13352:	97b2                	add	a5,a5,a2
   13354:	fec33c23          	sd	a2,-8(t1)
   13358:	2685                	addiw	a3,a3,1
   1335a:	0006861b          	sext.w	a2,a3
   1335e:	10d12c23          	sw	a3,280(sp)
   13362:	f23e                	sd	a5,288(sp)
   13364:	469d                	li	a3,7
   13366:	1ac6cbe3          	blt	a3,a2,13d1c <_vfprintf_r+0x1786>
   1336a:	7682                	ld	a3,32(sp)
   1336c:	40e6863b          	subw	a2,a3,a4
   13370:	96e6                	add	a3,a3,s9
   13372:	418686bb          	subw	a3,a3,s8
   13376:	8732                	mv	a4,a2
   13378:	00c6d363          	bge	a3,a2,1337e <_vfprintf_r+0xde8>
   1337c:	8736                	mv	a4,a3
   1337e:	00070b9b          	sext.w	s7,a4
   13382:	03705263          	blez	s7,133a6 <_vfprintf_r+0xe10>
   13386:	11812703          	lw	a4,280(sp)
   1338a:	97de                	add	a5,a5,s7
   1338c:	01833023          	sd	s8,0(t1)
   13390:	0017069b          	addiw	a3,a4,1
   13394:	01733423          	sd	s7,8(t1)
   13398:	f23e                	sd	a5,288(sp)
   1339a:	10d12c23          	sw	a3,280(sp)
   1339e:	471d                	li	a4,7
   133a0:	0341                	addi	t1,t1,16
   133a2:	24d740e3          	blt	a4,a3,13de2 <_vfprintf_r+0x184c>
   133a6:	fffbc713          	not	a4,s7
   133aa:	977d                	srai	a4,a4,0x3f
   133ac:	00ebfbb3          	and	s7,s7,a4
   133b0:	41760bbb          	subw	s7,a2,s7
   133b4:	c5705f63          	blez	s7,12812 <_vfprintf_r+0x27c>
   133b8:	000248b7          	lui	a7,0x24
   133bc:	46c1                	li	a3,16
   133be:	11812703          	lw	a4,280(sp)
   133c2:	ab088d93          	addi	s11,a7,-1360 # 23ab0 <zeroes.0>
   133c6:	4cc1                	li	s9,16
   133c8:	4c1d                	li	s8,7
   133ca:	0176c663          	blt	a3,s7,133d6 <_vfprintf_r+0xe40>
   133ce:	ae55                	j	13782 <_vfprintf_r+0x11ec>
   133d0:	3bc1                	addiw	s7,s7,-16
   133d2:	3b7cd863          	bge	s9,s7,13782 <_vfprintf_r+0x11ec>
   133d6:	2705                	addiw	a4,a4,1
   133d8:	07c1                	addi	a5,a5,16
   133da:	01b33023          	sd	s11,0(t1)
   133de:	01933423          	sd	s9,8(t1)
   133e2:	f23e                	sd	a5,288(sp)
   133e4:	10e12c23          	sw	a4,280(sp)
   133e8:	0341                	addi	t1,t1,16
   133ea:	feec53e3          	bge	s8,a4,133d0 <_vfprintf_r+0xe3a>
   133ee:	0a10                	addi	a2,sp,272
   133f0:	85ca                	mv	a1,s2
   133f2:	8552                	mv	a0,s4
   133f4:	1c70a0ef          	jal	ra,1ddba <__sprint_r>
   133f8:	d80511e3          	bnez	a0,1317a <_vfprintf_r+0xbe4>
   133fc:	7792                	ld	a5,288(sp)
   133fe:	11812703          	lw	a4,280(sp)
   13402:	835a                	mv	t1,s6
   13404:	b7f1                	j	133d0 <_vfprintf_r+0xe3a>
   13406:	0014f513          	andi	a0,s1,1
   1340a:	fc051863          	bnez	a0,12bda <_vfprintf_r+0x644>
   1340e:	00b33423          	sd	a1,8(t1)
   13412:	f262                	sd	s8,288(sp)
   13414:	10e12c23          	sw	a4,280(sp)
   13418:	469d                	li	a3,7
   1341a:	18e6c263          	blt	a3,a4,1359e <_vfprintf_r+0x1008>
   1341e:	2609                	addiw	a2,a2,2
   13420:	02030313          	addi	t1,t1,32
   13424:	83dff06f          	j	12c60 <_vfprintf_r+0x6ca>
   13428:	83a05ce3          	blez	s10,12c60 <_vfprintf_r+0x6ca>
   1342c:	4741                	li	a4,16
   1342e:	4ba755e3          	bge	a4,s10,140d8 <_vfprintf_r+0x1b42>
   13432:	000248b7          	lui	a7,0x24
   13436:	ab088d93          	addi	s11,a7,-1360 # 23ab0 <zeroes.0>
   1343a:	4841                	li	a6,16
   1343c:	4c9d                	li	s9,7
   1343e:	a031                	j	1344a <_vfprintf_r+0xeb4>
   13440:	3d41                	addiw	s10,s10,-16
   13442:	13a85f63          	bge	a6,s10,13580 <_vfprintf_r+0xfea>
   13446:	00170e1b          	addiw	t3,a4,1
   1344a:	0c41                	addi	s8,s8,16
   1344c:	01bbb023          	sd	s11,0(s7)
   13450:	010bb423          	sd	a6,8(s7)
   13454:	f262                	sd	s8,288(sp)
   13456:	000e071b          	sext.w	a4,t3
   1345a:	11c12c23          	sw	t3,280(sp)
   1345e:	0bc1                	addi	s7,s7,16
   13460:	feecd0e3          	bge	s9,a4,13440 <_vfprintf_r+0xeaa>
   13464:	0a10                	addi	a2,sp,272
   13466:	85ca                	mv	a1,s2
   13468:	8552                	mv	a0,s4
   1346a:	1510a0ef          	jal	ra,1ddba <__sprint_r>
   1346e:	d00516e3          	bnez	a0,1317a <_vfprintf_r+0xbe4>
   13472:	7c12                	ld	s8,288(sp)
   13474:	11812703          	lw	a4,280(sp)
   13478:	8bda                	mv	s7,s6
   1347a:	4841                	li	a6,16
   1347c:	b7d1                	j	13440 <_vfprintf_r+0xeaa>
   1347e:	010df793          	andi	a5,s11,16
   13482:	eb8d                	bnez	a5,134b4 <_vfprintf_r+0xf1e>
   13484:	66c2                	ld	a3,16(sp)
   13486:	040df793          	andi	a5,s11,64
   1348a:	0006a983          	lw	s3,0(a3)
   1348e:	3c078363          	beqz	a5,13854 <_vfprintf_r+0x12be>
   13492:	19c2                	slli	s3,s3,0x30
   13494:	0309d993          	srli	s3,s3,0x30
   13498:	e83a                	sd	a4,16(sp)
   1349a:	4785                	li	a5,1
   1349c:	cc2ff06f          	j	1295e <_vfprintf_r+0x3c8>
   134a0:	0014f713          	andi	a4,s1,1
   134a4:	b6070763          	beqz	a4,12812 <_vfprintf_r+0x27c>
   134a8:	be05                	j	12fd8 <_vfprintf_r+0xa42>
   134aa:	67a2                	ld	a5,8(sp)
   134ac:	8ca2                	mv	s9,s0
   134ae:	e31c                	sd	a5,0(a4)
   134b0:	b94ff06f          	j	12844 <_vfprintf_r+0x2ae>
   134b4:	67c2                	ld	a5,16(sp)
   134b6:	e83a                	sd	a4,16(sp)
   134b8:	0007b983          	ld	s3,0(a5)
   134bc:	4785                	li	a5,1
   134be:	ca0ff06f          	j	1295e <_vfprintf_r+0x3c8>
   134c2:	67c2                	ld	a5,16(sp)
   134c4:	639c                	ld	a5,0(a5)
   134c6:	89be                	mv	s3,a5
   134c8:	c2cff06f          	j	128f4 <_vfprintf_r+0x35e>
   134cc:	67c2                	ld	a5,16(sp)
   134ce:	0007b983          	ld	s3,0(a5)
   134d2:	c80ff06f          	j	12952 <_vfprintf_r+0x3bc>
   134d6:	67c2                	ld	a5,16(sp)
   134d8:	07bd                	addi	a5,a5,15
   134da:	9bc1                	andi	a5,a5,-16
   134dc:	6398                	ld	a4,0(a5)
   134de:	6794                	ld	a3,8(a5)
   134e0:	07c1                	addi	a5,a5,16
   134e2:	e83e                	sd	a5,16(sp)
   134e4:	e23a                	sd	a4,256(sp)
   134e6:	e636                	sd	a3,264(sp)
   134e8:	ce6ff06f          	j	129ce <_vfprintf_r+0x438>
   134ec:	e83a                	sd	a4,16(sp)
   134ee:	47a5                	li	a5,9
   134f0:	8da6                	mv	s11,s1
   134f2:	cb37f4e3          	bgeu	a5,s3,1319a <_vfprintf_r+0xc04>
   134f6:	18c10b93          	addi	s7,sp,396
   134fa:	400df713          	andi	a4,s11,1024
   134fe:	f002                	sd	zero,32(sp)
   13500:	865e                	mv	a2,s7
   13502:	44a9                	li	s1,10
   13504:	46a5                	li	a3,9
   13506:	0ff00893          	li	a7,255
   1350a:	a039                	j	13518 <_vfprintf_r+0xf82>
   1350c:	0299d7b3          	divu	a5,s3,s1
   13510:	a736f6e3          	bgeu	a3,s3,12f7c <_vfprintf_r+0x9e6>
   13514:	89be                	mv	s3,a5
   13516:	8666                	mv	a2,s9
   13518:	7582                	ld	a1,32(sp)
   1351a:	fff60c93          	addi	s9,a2,-1
   1351e:	2585                	addiw	a1,a1,1
   13520:	f02e                	sd	a1,32(sp)
   13522:	0299f7b3          	remu	a5,s3,s1
   13526:	0307879b          	addiw	a5,a5,48
   1352a:	fef60fa3          	sb	a5,-1(a2)
   1352e:	df79                	beqz	a4,1350c <_vfprintf_r+0xf76>
   13530:	7786                	ld	a5,96(sp)
   13532:	0007c783          	lbu	a5,0(a5)
   13536:	fcf59be3          	bne	a1,a5,1350c <_vfprintf_r+0xf76>
   1353a:	fd1789e3          	beq	a5,a7,1350c <_vfprintf_r+0xf76>
   1353e:	a336ffe3          	bgeu	a3,s3,12f7c <_vfprintf_r+0x9e6>
   13542:	678a                	ld	a5,128(sp)
   13544:	65aa                	ld	a1,136(sp)
   13546:	f81a                	sd	t1,48(sp)
   13548:	40fc8cb3          	sub	s9,s9,a5
   1354c:	863e                	mv	a2,a5
   1354e:	8566                	mv	a0,s9
   13550:	ec3a                	sd	a4,24(sp)
   13552:	300070ef          	jal	ra,1a852 <strncpy>
   13556:	7706                	ld	a4,96(sp)
   13558:	0299d7b3          	divu	a5,s3,s1
   1355c:	7342                	ld	t1,48(sp)
   1355e:	00174603          	lbu	a2,1(a4)
   13562:	f002                	sd	zero,32(sp)
   13564:	46a5                	li	a3,9
   13566:	00c03633          	snez	a2,a2
   1356a:	9732                	add	a4,a4,a2
   1356c:	f0ba                	sd	a4,96(sp)
   1356e:	0ff00893          	li	a7,255
   13572:	6762                	ld	a4,24(sp)
   13574:	b745                	j	13514 <_vfprintf_r+0xf7e>
   13576:	00068b9b          	sext.w	s7,a3
   1357a:	d7704ce3          	bgtz	s7,132f2 <_vfprintf_r+0xd5c>
   1357e:	bb51                	j	13312 <_vfprintf_r+0xd7c>
   13580:	0017061b          	addiw	a2,a4,1
   13584:	010b8713          	addi	a4,s7,16
   13588:	9c6a                	add	s8,s8,s10
   1358a:	01bbb023          	sd	s11,0(s7)
   1358e:	01abb423          	sd	s10,8(s7)
   13592:	f262                	sd	s8,288(sp)
   13594:	10c12c23          	sw	a2,280(sp)
   13598:	469d                	li	a3,7
   1359a:	4ac6d363          	bge	a3,a2,13a40 <_vfprintf_r+0x14aa>
   1359e:	0a10                	addi	a2,sp,272
   135a0:	85ca                	mv	a1,s2
   135a2:	8552                	mv	a0,s4
   135a4:	0170a0ef          	jal	ra,1ddba <__sprint_r>
   135a8:	bc0519e3          	bnez	a0,1317a <_vfprintf_r+0xbe4>
   135ac:	11812603          	lw	a2,280(sp)
   135b0:	7c12                	ld	s8,288(sp)
   135b2:	1a010313          	addi	t1,sp,416
   135b6:	2605                	addiw	a2,a2,1
   135b8:	8bda                	mv	s7,s6
   135ba:	ea6ff06f          	j	12c60 <_vfprintf_r+0x6ca>
   135be:	8da6                	mv	s11,s1
   135c0:	ff8ff06f          	j	12db8 <_vfprintf_r+0x822>
   135c4:	000247b7          	lui	a5,0x24
   135c8:	90878793          	addi	a5,a5,-1784 # 23908 <__clzdi2+0x1cc>
   135cc:	f43e                	sd	a5,40(sp)
   135ce:	66c2                	ld	a3,16(sp)
   135d0:	0204f793          	andi	a5,s1,32
   135d4:	00868713          	addi	a4,a3,8
   135d8:	cfe9                	beqz	a5,136b2 <_vfprintf_r+0x111c>
   135da:	0006b983          	ld	s3,0(a3)
   135de:	0014f793          	andi	a5,s1,1
   135e2:	cf81                	beqz	a5,135fa <_vfprintf_r+0x1064>
   135e4:	00098b63          	beqz	s3,135fa <_vfprintf_r+0x1064>
   135e8:	0024e493          	ori	s1,s1,2
   135ec:	03000793          	li	a5,48
   135f0:	0ef10023          	sb	a5,224(sp)
   135f4:	0fa100a3          	sb	s10,225(sp)
   135f8:	2481                	sext.w	s1,s1
   135fa:	bff4f493          	andi	s1,s1,-1025
   135fe:	00048d9b          	sext.w	s11,s1
   13602:	e83a                	sd	a4,16(sp)
   13604:	4789                	li	a5,2
   13606:	b58ff06f          	j	1295e <_vfprintf_r+0x3c8>
   1360a:	2004e493          	ori	s1,s1,512
   1360e:	00144e03          	lbu	t3,1(s0)
   13612:	2481                	sext.w	s1,s1
   13614:	0405                	addi	s0,s0,1
   13616:	8d8ff06f          	j	126ee <_vfprintf_r+0x158>
   1361a:	0204e493          	ori	s1,s1,32
   1361e:	00144e03          	lbu	t3,1(s0)
   13622:	2481                	sext.w	s1,s1
   13624:	0405                	addi	s0,s0,1
   13626:	8c8ff06f          	j	126ee <_vfprintf_r+0x158>
   1362a:	0a10                	addi	a2,sp,272
   1362c:	85ca                	mv	a1,s2
   1362e:	8552                	mv	a0,s4
   13630:	78a0a0ef          	jal	ra,1ddba <__sprint_r>
   13634:	b40513e3          	bnez	a0,1317a <_vfprintf_r+0xbe4>
   13638:	7792                	ld	a5,288(sp)
   1363a:	835a                	mv	t1,s6
   1363c:	b2c9                	j	12ffe <_vfprintf_r+0xa68>
   1363e:	000247b7          	lui	a5,0x24
   13642:	8f078793          	addi	a5,a5,-1808 # 238f0 <__clzdi2+0x1b4>
   13646:	f43e                	sd	a5,40(sp)
   13648:	b759                	j	135ce <_vfprintf_r+0x1038>
   1364a:	4799                	li	a5,6
   1364c:	000c0b9b          	sext.w	s7,s8
   13650:	4387e863          	bltu	a5,s8,13a80 <_vfprintf_r+0x14ea>
   13654:	00024837          	lui	a6,0x24
   13658:	89de                	mv	s3,s7
   1365a:	e86e                	sd	s11,16(sp)
   1365c:	92080c93          	addi	s9,a6,-1760 # 23920 <__clzdi2+0x1e4>
   13660:	8faff06f          	j	1275a <_vfprintf_r+0x1c4>
   13664:	000248b7          	lui	a7,0x24
   13668:	46c1                	li	a3,16
   1366a:	11812703          	lw	a4,280(sp)
   1366e:	ab088d93          	addi	s11,a7,-1360 # 23ab0 <zeroes.0>
   13672:	4d41                	li	s10,16
   13674:	4c1d                	li	s8,7
   13676:	0176c663          	blt	a3,s7,13682 <_vfprintf_r+0x10ec>
   1367a:	ac35                	j	138b6 <_vfprintf_r+0x1320>
   1367c:	3bc1                	addiw	s7,s7,-16
   1367e:	237d5c63          	bge	s10,s7,138b6 <_vfprintf_r+0x1320>
   13682:	2705                	addiw	a4,a4,1
   13684:	07c1                	addi	a5,a5,16
   13686:	01b33023          	sd	s11,0(t1)
   1368a:	01a33423          	sd	s10,8(t1)
   1368e:	f23e                	sd	a5,288(sp)
   13690:	10e12c23          	sw	a4,280(sp)
   13694:	0341                	addi	t1,t1,16
   13696:	feec53e3          	bge	s8,a4,1367c <_vfprintf_r+0x10e6>
   1369a:	0a10                	addi	a2,sp,272
   1369c:	85ca                	mv	a1,s2
   1369e:	8552                	mv	a0,s4
   136a0:	71a0a0ef          	jal	ra,1ddba <__sprint_r>
   136a4:	ac051be3          	bnez	a0,1317a <_vfprintf_r+0xbe4>
   136a8:	7792                	ld	a5,288(sp)
   136aa:	11812703          	lw	a4,280(sp)
   136ae:	835a                	mv	t1,s6
   136b0:	b7f1                	j	1367c <_vfprintf_r+0x10e6>
   136b2:	0104f793          	andi	a5,s1,16
   136b6:	c3c5                	beqz	a5,13756 <_vfprintf_r+0x11c0>
   136b8:	67c2                	ld	a5,16(sp)
   136ba:	0007b983          	ld	s3,0(a5)
   136be:	b705                	j	135de <_vfprintf_r+0x1048>
   136c0:	0a10                	addi	a2,sp,272
   136c2:	85ca                	mv	a1,s2
   136c4:	8552                	mv	a0,s4
   136c6:	6f40a0ef          	jal	ra,1ddba <__sprint_r>
   136ca:	aa0518e3          	bnez	a0,1317a <_vfprintf_r+0xbe4>
   136ce:	7c12                	ld	s8,288(sp)
   136d0:	11812703          	lw	a4,280(sp)
   136d4:	8bda                	mv	s7,s6
   136d6:	d16ff06f          	j	12bec <_vfprintf_r+0x656>
   136da:	0a10                	addi	a2,sp,272
   136dc:	85ca                	mv	a1,s2
   136de:	8552                	mv	a0,s4
   136e0:	6da0a0ef          	jal	ra,1ddba <__sprint_r>
   136e4:	a8051be3          	bnez	a0,1317a <_vfprintf_r+0xbe4>
   136e8:	7c12                	ld	s8,288(sp)
   136ea:	11812703          	lw	a4,280(sp)
   136ee:	8bda                	mv	s7,s6
   136f0:	d20ff06f          	j	12c10 <_vfprintf_r+0x67a>
   136f4:	11812703          	lw	a4,280(sp)
   136f8:	000246b7          	lui	a3,0x24
   136fc:	92868693          	addi	a3,a3,-1752 # 23928 <__clzdi2+0x1ec>
   13700:	2705                	addiw	a4,a4,1
   13702:	00d33023          	sd	a3,0(t1)
   13706:	0785                	addi	a5,a5,1
   13708:	4685                	li	a3,1
   1370a:	00d33423          	sd	a3,8(t1)
   1370e:	10e12c23          	sw	a4,280(sp)
   13712:	0007069b          	sext.w	a3,a4
   13716:	f23e                	sd	a5,288(sp)
   13718:	471d                	li	a4,7
   1371a:	0341                	addi	t1,t1,16
   1371c:	32d74863          	blt	a4,a3,13a4c <_vfprintf_r+0x14b6>
   13720:	ea55                	bnez	a2,137d4 <_vfprintf_r+0x123e>
   13722:	7682                	ld	a3,32(sp)
   13724:	0014f713          	andi	a4,s1,1
   13728:	8f55                	or	a4,a4,a3
   1372a:	8e070463          	beqz	a4,12812 <_vfprintf_r+0x27c>
   1372e:	7746                	ld	a4,112(sp)
   13730:	76a6                	ld	a3,104(sp)
   13732:	00e33023          	sd	a4,0(t1)
   13736:	11812703          	lw	a4,280(sp)
   1373a:	97b6                	add	a5,a5,a3
   1373c:	00d33423          	sd	a3,8(t1)
   13740:	2705                	addiw	a4,a4,1
   13742:	0007069b          	sext.w	a3,a4
   13746:	10e12c23          	sw	a4,280(sp)
   1374a:	f23e                	sd	a5,288(sp)
   1374c:	471d                	li	a4,7
   1374e:	3ad74063          	blt	a4,a3,13aee <_vfprintf_r+0x1558>
   13752:	0341                	addi	t1,t1,16
   13754:	a06d                	j	137fe <_vfprintf_r+0x1268>
   13756:	66c2                	ld	a3,16(sp)
   13758:	0404f793          	andi	a5,s1,64
   1375c:	0006a983          	lw	s3,0(a3)
   13760:	10078e63          	beqz	a5,1387c <_vfprintf_r+0x12e6>
   13764:	19c2                	slli	s3,s3,0x30
   13766:	0309d993          	srli	s3,s3,0x30
   1376a:	bd95                	j	135de <_vfprintf_r+0x1048>
   1376c:	0a10                	addi	a2,sp,272
   1376e:	85ca                	mv	a1,s2
   13770:	8552                	mv	a0,s4
   13772:	6480a0ef          	jal	ra,1ddba <__sprint_r>
   13776:	a00512e3          	bnez	a0,1317a <_vfprintf_r+0xbe4>
   1377a:	7792                	ld	a5,288(sp)
   1377c:	835a                	mv	t1,s6
   1377e:	853ff06f          	j	12fd0 <_vfprintf_r+0xa3a>
   13782:	0017069b          	addiw	a3,a4,1
   13786:	8736                	mv	a4,a3
   13788:	97de                	add	a5,a5,s7
   1378a:	01b33023          	sd	s11,0(t1)
   1378e:	872ff06f          	j	12800 <_vfprintf_r+0x26a>
   13792:	6512                	ld	a0,256(sp)
   13794:	65b2                	ld	a1,264(sp)
   13796:	4601                	li	a2,0
   13798:	4681                	li	a3,0
   1379a:	4f70e0ef          	jal	ra,22490 <__letf2>
   1379e:	6362                	ld	t1,24(sp)
   137a0:	56054963          	bltz	a0,13d12 <_vfprintf_r+0x177c>
   137a4:	0df14783          	lbu	a5,223(sp)
   137a8:	04700713          	li	a4,71
   137ac:	2ba75b63          	bge	a4,s10,13a62 <_vfprintf_r+0x14cc>
   137b0:	00024837          	lui	a6,0x24
   137b4:	8d880c93          	addi	s9,a6,-1832 # 238d8 <__clzdi2+0x19c>
   137b8:	f7f4f493          	andi	s1,s1,-129
   137bc:	ec02                	sd	zero,24(sp)
   137be:	e482                	sd	zero,72(sp)
   137c0:	ec82                	sd	zero,88(sp)
   137c2:	e882                	sd	zero,80(sp)
   137c4:	2481                	sext.w	s1,s1
   137c6:	498d                	li	s3,3
   137c8:	4b8d                	li	s7,3
   137ca:	4c01                	li	s8,0
   137cc:	96079563          	bnez	a5,12936 <_vfprintf_r+0x3a0>
   137d0:	f95fe06f          	j	12764 <_vfprintf_r+0x1ce>
   137d4:	7746                	ld	a4,112(sp)
   137d6:	76a6                	ld	a3,104(sp)
   137d8:	0341                	addi	t1,t1,16
   137da:	fee33823          	sd	a4,-16(t1)
   137de:	11812703          	lw	a4,280(sp)
   137e2:	97b6                	add	a5,a5,a3
   137e4:	fed33c23          	sd	a3,-8(t1)
   137e8:	2705                	addiw	a4,a4,1
   137ea:	0007069b          	sext.w	a3,a4
   137ee:	10e12c23          	sw	a4,280(sp)
   137f2:	f23e                	sd	a5,288(sp)
   137f4:	471d                	li	a4,7
   137f6:	2ed74c63          	blt	a4,a3,13aee <_vfprintf_r+0x1558>
   137fa:	64064a63          	bltz	a2,13e4e <_vfprintf_r+0x18b8>
   137fe:	7702                	ld	a4,32(sp)
   13800:	0016861b          	addiw	a2,a3,1
   13804:	01933023          	sd	s9,0(t1)
   13808:	97ba                	add	a5,a5,a4
   1380a:	00e33423          	sd	a4,8(t1)
   1380e:	f23e                	sd	a5,288(sp)
   13810:	10c12c23          	sw	a2,280(sp)
   13814:	471d                	li	a4,7
   13816:	00c74463          	blt	a4,a2,1381e <_vfprintf_r+0x1288>
   1381a:	ff7fe06f          	j	12810 <_vfprintf_r+0x27a>
   1381e:	c5eff06f          	j	12c7c <_vfprintf_r+0x6e6>
   13822:	8566                	mv	a0,s9
   13824:	f81a                	sd	t1,48(sp)
   13826:	cddfe0ef          	jal	ra,12502 <strlen>
   1382a:	00050b9b          	sext.w	s7,a0
   1382e:	0df14783          	lbu	a5,223(sp)
   13832:	fffbc993          	not	s3,s7
   13836:	43f9d993          	srai	s3,s3,0x3f
   1383a:	e86e                	sd	s11,16(sp)
   1383c:	ec02                	sd	zero,24(sp)
   1383e:	e482                	sd	zero,72(sp)
   13840:	ec82                	sd	zero,88(sp)
   13842:	e882                	sd	zero,80(sp)
   13844:	7342                	ld	t1,48(sp)
   13846:	0179f9b3          	and	s3,s3,s7
   1384a:	4c01                	li	s8,0
   1384c:	8e079563          	bnez	a5,12936 <_vfprintf_r+0x3a0>
   13850:	f15fe06f          	j	12764 <_vfprintf_r+0x1ce>
   13854:	200df793          	andi	a5,s11,512
   13858:	26078463          	beqz	a5,13ac0 <_vfprintf_r+0x152a>
   1385c:	0ff9f993          	andi	s3,s3,255
   13860:	e83a                	sd	a4,16(sp)
   13862:	4785                	li	a5,1
   13864:	8faff06f          	j	1295e <_vfprintf_r+0x3c8>
   13868:	2004f793          	andi	a5,s1,512
   1386c:	24078463          	beqz	a5,13ab4 <_vfprintf_r+0x151e>
   13870:	67c2                	ld	a5,16(sp)
   13872:	00078983          	lb	s3,0(a5)
   13876:	87ce                	mv	a5,s3
   13878:	87cff06f          	j	128f4 <_vfprintf_r+0x35e>
   1387c:	2004f793          	andi	a5,s1,512
   13880:	24078763          	beqz	a5,13ace <_vfprintf_r+0x1538>
   13884:	0ff9f993          	andi	s3,s3,255
   13888:	bb99                	j	135de <_vfprintf_r+0x1048>
   1388a:	2004f793          	andi	a5,s1,512
   1388e:	20078e63          	beqz	a5,13aaa <_vfprintf_r+0x1514>
   13892:	0ff9f993          	andi	s3,s3,255
   13896:	8bcff06f          	j	12952 <_vfprintf_r+0x3bc>
   1389a:	67b2                	ld	a5,264(sp)
   1389c:	2407c463          	bltz	a5,13ae4 <_vfprintf_r+0x154e>
   138a0:	0df14783          	lbu	a5,223(sp)
   138a4:	04700713          	li	a4,71
   138a8:	53a75863          	bge	a4,s10,13dd8 <_vfprintf_r+0x1842>
   138ac:	00024837          	lui	a6,0x24
   138b0:	8e880c93          	addi	s9,a6,-1816 # 238e8 <__clzdi2+0x1ac>
   138b4:	b711                	j	137b8 <_vfprintf_r+0x1222>
   138b6:	0017069b          	addiw	a3,a4,1
   138ba:	97de                	add	a5,a5,s7
   138bc:	01b33023          	sd	s11,0(t1)
   138c0:	01733423          	sd	s7,8(t1)
   138c4:	f23e                	sd	a5,288(sp)
   138c6:	10d12c23          	sw	a3,280(sp)
   138ca:	471d                	li	a4,7
   138cc:	0341                	addi	t1,t1,16
   138ce:	a4d75ce3          	bge	a4,a3,13326 <_vfprintf_r+0xd90>
   138d2:	0a10                	addi	a2,sp,272
   138d4:	85ca                	mv	a1,s2
   138d6:	8552                	mv	a0,s4
   138d8:	4e20a0ef          	jal	ra,1ddba <__sprint_r>
   138dc:	88051fe3          	bnez	a0,1317a <_vfprintf_r+0xbe4>
   138e0:	7792                	ld	a5,288(sp)
   138e2:	835a                	mv	t1,s6
   138e4:	b489                	j	13326 <_vfprintf_r+0xd90>
   138e6:	7702                	ld	a4,32(sp)
   138e8:	00024eb7          	lui	t4,0x24
   138ec:	4b9d                	li	s7,7
   138ee:	9766                	add	a4,a4,s9
   138f0:	fc3a                	sd	a4,56(sp)
   138f2:	6766                	ld	a4,88(sp)
   138f4:	4dc1                	li	s11,16
   138f6:	ab0e8d13          	addi	s10,t4,-1360 # 23ab0 <zeroes.0>
   138fa:	cb51                	beqz	a4,1398e <_vfprintf_r+0x13f8>
   138fc:	6726                	ld	a4,72(sp)
   138fe:	eb59                	bnez	a4,13994 <_vfprintf_r+0x13fe>
   13900:	7706                	ld	a4,96(sp)
   13902:	177d                	addi	a4,a4,-1
   13904:	f0ba                	sd	a4,96(sp)
   13906:	6766                	ld	a4,88(sp)
   13908:	377d                	addiw	a4,a4,-1
   1390a:	ecba                	sd	a4,88(sp)
   1390c:	672a                	ld	a4,136(sp)
   1390e:	668a                	ld	a3,128(sp)
   13910:	0341                	addi	t1,t1,16
   13912:	fee33823          	sd	a4,-16(t1)
   13916:	11812703          	lw	a4,280(sp)
   1391a:	97b6                	add	a5,a5,a3
   1391c:	fed33c23          	sd	a3,-8(t1)
   13920:	2705                	addiw	a4,a4,1
   13922:	f23e                	sd	a5,288(sp)
   13924:	0007069b          	sext.w	a3,a4
   13928:	10e12c23          	sw	a4,280(sp)
   1392c:	0cdbcf63          	blt	s7,a3,13a0a <_vfprintf_r+0x1474>
   13930:	7706                	ld	a4,96(sp)
   13932:	00074583          	lbu	a1,0(a4)
   13936:	7762                	ld	a4,56(sp)
   13938:	0005869b          	sext.w	a3,a1
   1393c:	4187063b          	subw	a2,a4,s8
   13940:	0006871b          	sext.w	a4,a3
   13944:	00d65463          	bge	a2,a3,1394c <_vfprintf_r+0x13b6>
   13948:	0006071b          	sext.w	a4,a2
   1394c:	02e05663          	blez	a4,13978 <_vfprintf_r+0x13e2>
   13950:	11812683          	lw	a3,280(sp)
   13954:	97ba                	add	a5,a5,a4
   13956:	01833023          	sd	s8,0(t1)
   1395a:	0016861b          	addiw	a2,a3,1
   1395e:	00e33423          	sd	a4,8(t1)
   13962:	f23e                	sd	a5,288(sp)
   13964:	10c12c23          	sw	a2,280(sp)
   13968:	0acbcb63          	blt	s7,a2,13a1e <_vfprintf_r+0x1488>
   1396c:	7686                	ld	a3,96(sp)
   1396e:	0341                	addi	t1,t1,16
   13970:	0006c583          	lbu	a1,0(a3)
   13974:	0005869b          	sext.w	a3,a1
   13978:	fff74613          	not	a2,a4
   1397c:	967d                	srai	a2,a2,0x3f
   1397e:	8f71                	and	a4,a4,a2
   13980:	40e6873b          	subw	a4,a3,a4
   13984:	00e04c63          	bgtz	a4,1399c <_vfprintf_r+0x1406>
   13988:	9c2e                	add	s8,s8,a1
   1398a:	6766                	ld	a4,88(sp)
   1398c:	fb25                	bnez	a4,138fc <_vfprintf_r+0x1366>
   1398e:	6726                	ld	a4,72(sp)
   13990:	2c070f63          	beqz	a4,13c6e <_vfprintf_r+0x16d8>
   13994:	6726                	ld	a4,72(sp)
   13996:	377d                	addiw	a4,a4,-1
   13998:	e4ba                	sd	a4,72(sp)
   1399a:	bf8d                	j	1390c <_vfprintf_r+0x1376>
   1399c:	11812683          	lw	a3,280(sp)
   139a0:	00edc663          	blt	s11,a4,139ac <_vfprintf_r+0x1416>
   139a4:	a081                	j	139e4 <_vfprintf_r+0x144e>
   139a6:	3741                	addiw	a4,a4,-16
   139a8:	02edde63          	bge	s11,a4,139e4 <_vfprintf_r+0x144e>
   139ac:	2685                	addiw	a3,a3,1
   139ae:	07c1                	addi	a5,a5,16
   139b0:	01a33023          	sd	s10,0(t1)
   139b4:	01b33423          	sd	s11,8(t1)
   139b8:	f23e                	sd	a5,288(sp)
   139ba:	10d12c23          	sw	a3,280(sp)
   139be:	0341                	addi	t1,t1,16
   139c0:	fedbd3e3          	bge	s7,a3,139a6 <_vfprintf_r+0x1410>
   139c4:	0a10                	addi	a2,sp,272
   139c6:	85ca                	mv	a1,s2
   139c8:	8552                	mv	a0,s4
   139ca:	f83a                	sd	a4,48(sp)
   139cc:	3ee0a0ef          	jal	ra,1ddba <__sprint_r>
   139d0:	fa051563          	bnez	a0,1317a <_vfprintf_r+0xbe4>
   139d4:	7742                	ld	a4,48(sp)
   139d6:	7792                	ld	a5,288(sp)
   139d8:	11812683          	lw	a3,280(sp)
   139dc:	3741                	addiw	a4,a4,-16
   139de:	835a                	mv	t1,s6
   139e0:	fcedc6e3          	blt	s11,a4,139ac <_vfprintf_r+0x1416>
   139e4:	2685                	addiw	a3,a3,1
   139e6:	97ba                	add	a5,a5,a4
   139e8:	00e33423          	sd	a4,8(t1)
   139ec:	01a33023          	sd	s10,0(t1)
   139f0:	f23e                	sd	a5,288(sp)
   139f2:	0006871b          	sext.w	a4,a3
   139f6:	10d12c23          	sw	a3,280(sp)
   139fa:	2eebce63          	blt	s7,a4,13cf6 <_vfprintf_r+0x1760>
   139fe:	7706                	ld	a4,96(sp)
   13a00:	0341                	addi	t1,t1,16
   13a02:	00074583          	lbu	a1,0(a4)
   13a06:	9c2e                	add	s8,s8,a1
   13a08:	b749                	j	1398a <_vfprintf_r+0x13f4>
   13a0a:	0a10                	addi	a2,sp,272
   13a0c:	85ca                	mv	a1,s2
   13a0e:	8552                	mv	a0,s4
   13a10:	3aa0a0ef          	jal	ra,1ddba <__sprint_r>
   13a14:	f6051363          	bnez	a0,1317a <_vfprintf_r+0xbe4>
   13a18:	7792                	ld	a5,288(sp)
   13a1a:	835a                	mv	t1,s6
   13a1c:	bf11                	j	13930 <_vfprintf_r+0x139a>
   13a1e:	0a10                	addi	a2,sp,272
   13a20:	85ca                	mv	a1,s2
   13a22:	8552                	mv	a0,s4
   13a24:	f83a                	sd	a4,48(sp)
   13a26:	3940a0ef          	jal	ra,1ddba <__sprint_r>
   13a2a:	f4051863          	bnez	a0,1317a <_vfprintf_r+0xbe4>
   13a2e:	7786                	ld	a5,96(sp)
   13a30:	7742                	ld	a4,48(sp)
   13a32:	835a                	mv	t1,s6
   13a34:	0007c583          	lbu	a1,0(a5)
   13a38:	7792                	ld	a5,288(sp)
   13a3a:	0005869b          	sext.w	a3,a1
   13a3e:	bf2d                	j	13978 <_vfprintf_r+0x13e2>
   13a40:	2605                	addiw	a2,a2,1
   13a42:	01070313          	addi	t1,a4,16
   13a46:	8bba                	mv	s7,a4
   13a48:	a18ff06f          	j	12c60 <_vfprintf_r+0x6ca>
   13a4c:	0a10                	addi	a2,sp,272
   13a4e:	85ca                	mv	a1,s2
   13a50:	8552                	mv	a0,s4
   13a52:	3680a0ef          	jal	ra,1ddba <__sprint_r>
   13a56:	f2051263          	bnez	a0,1317a <_vfprintf_r+0xbe4>
   13a5a:	562e                	lw	a2,232(sp)
   13a5c:	7792                	ld	a5,288(sp)
   13a5e:	835a                	mv	t1,s6
   13a60:	b1c1                	j	13720 <_vfprintf_r+0x118a>
   13a62:	00024837          	lui	a6,0x24
   13a66:	8d080c93          	addi	s9,a6,-1840 # 238d0 <__clzdi2+0x194>
   13a6a:	b3b9                	j	137b8 <_vfprintf_r+0x1222>
   13a6c:	0a10                	addi	a2,sp,272
   13a6e:	85ca                	mv	a1,s2
   13a70:	8552                	mv	a0,s4
   13a72:	3480a0ef          	jal	ra,1ddba <__sprint_r>
   13a76:	f0051263          	bnez	a0,1317a <_vfprintf_r+0xbe4>
   13a7a:	7792                	ld	a5,288(sp)
   13a7c:	835a                	mv	t1,s6
   13a7e:	b851                	j	13312 <_vfprintf_r+0xd7c>
   13a80:	4b99                	li	s7,6
   13a82:	bec9                	j	13654 <_vfprintf_r+0x10be>
   13a84:	7682                	ld	a3,32(sp)
   13a86:	00dc8833          	add	a6,s9,a3
   13a8a:	40e6863b          	subw	a2,a3,a4
   13a8e:	41880f3b          	subw	t5,a6,s8
   13a92:	8bb2                	mv	s7,a2
   13a94:	90cf59e3          	bge	t5,a2,133a6 <_vfprintf_r+0xe10>
   13a98:	000f0b9b          	sext.w	s7,t5
   13a9c:	b229                	j	133a6 <_vfprintf_r+0xe10>
   13a9e:	67a2                	ld	a5,8(sp)
   13aa0:	8ca2                	mv	s9,s0
   13aa2:	00f71023          	sh	a5,0(a4)
   13aa6:	d9ffe06f          	j	12844 <_vfprintf_r+0x2ae>
   13aaa:	1982                	slli	s3,s3,0x20
   13aac:	0209d993          	srli	s3,s3,0x20
   13ab0:	ea3fe06f          	j	12952 <_vfprintf_r+0x3bc>
   13ab4:	67c2                	ld	a5,16(sp)
   13ab6:	0007a983          	lw	s3,0(a5)
   13aba:	87ce                	mv	a5,s3
   13abc:	e39fe06f          	j	128f4 <_vfprintf_r+0x35e>
   13ac0:	1982                	slli	s3,s3,0x20
   13ac2:	0209d993          	srli	s3,s3,0x20
   13ac6:	e83a                	sd	a4,16(sp)
   13ac8:	4785                	li	a5,1
   13aca:	e95fe06f          	j	1295e <_vfprintf_r+0x3c8>
   13ace:	1982                	slli	s3,s3,0x20
   13ad0:	0209d993          	srli	s3,s3,0x20
   13ad4:	b629                	j	135de <_vfprintf_r+0x1048>
   13ad6:	0a10                	addi	a2,sp,272
   13ad8:	85ca                	mv	a1,s2
   13ada:	8552                	mv	a0,s4
   13adc:	2de0a0ef          	jal	ra,1ddba <__sprint_r>
   13ae0:	d75fe06f          	j	12854 <_vfprintf_r+0x2be>
   13ae4:	02d00793          	li	a5,45
   13ae8:	0cf10fa3          	sb	a5,223(sp)
   13aec:	bb65                	j	138a4 <_vfprintf_r+0x130e>
   13aee:	0a10                	addi	a2,sp,272
   13af0:	85ca                	mv	a1,s2
   13af2:	8552                	mv	a0,s4
   13af4:	2c60a0ef          	jal	ra,1ddba <__sprint_r>
   13af8:	e8051163          	bnez	a0,1317a <_vfprintf_r+0xbe4>
   13afc:	562e                	lw	a2,232(sp)
   13afe:	7792                	ld	a5,288(sp)
   13b00:	11812683          	lw	a3,280(sp)
   13b04:	835a                	mv	t1,s6
   13b06:	b9d5                	j	137fa <_vfprintf_r+0x1264>
   13b08:	03000793          	li	a5,48
   13b0c:	0ef10023          	sb	a5,224(sp)
   13b10:	05800713          	li	a4,88
   13b14:	0024e793          	ori	a5,s1,2
   13b18:	2781                	sext.w	a5,a5
   13b1a:	0ee100a3          	sb	a4,225(sp)
   13b1e:	fd3e                	sd	a5,184(sp)
   13b20:	06300713          	li	a4,99
   13b24:	ec02                	sd	zero,24(sp)
   13b26:	12810c93          	addi	s9,sp,296
   13b2a:	3d874363          	blt	a4,s8,13ef0 <_vfprintf_r+0x195a>
   13b2e:	6bb2                	ld	s7,264(sp)
   13b30:	fdfd7793          	andi	a5,s10,-33
   13b34:	1024e493          	ori	s1,s1,258
   13b38:	ecbe                	sd	a5,88(sp)
   13b3a:	e582                	sd	zero,200(sp)
   13b3c:	6d92                	ld	s11,256(sp)
   13b3e:	2481                	sext.w	s1,s1
   13b40:	1a0bc363          	bltz	s7,13ce6 <_vfprintf_r+0x1750>
   13b44:	06100793          	li	a5,97
   13b48:	46fd0763          	beq	s10,a5,13fb6 <_vfprintf_r+0x1a20>
   13b4c:	04100793          	li	a5,65
   13b50:	00fd0463          	beq	s10,a5,13b58 <_vfprintf_r+0x15c2>
   13b54:	ee1fe06f          	j	12a34 <_vfprintf_r+0x49e>
   13b58:	85de                	mv	a1,s7
   13b5a:	856e                	mv	a0,s11
   13b5c:	fc1a                	sd	t1,56(sp)
   13b5e:	1b30f0ef          	jal	ra,23510 <__trunctfdf2>
   13b62:	11a8                	addi	a0,sp,232
   13b64:	25d060ef          	jal	ra,1a5c0 <frexp>
   13b68:	0e70f0ef          	jal	ra,2344e <__extenddftf2>
   13b6c:	66ea                	ld	a3,152(sp)
   13b6e:	4601                	li	a2,0
   13b70:	1c70e0ef          	jal	ra,22536 <__multf3>
   13b74:	4601                	li	a2,0
   13b76:	4681                	li	a3,0
   13b78:	f82a                	sd	a0,48(sp)
   13b7a:	f02e                	sd	a1,32(sp)
   13b7c:	7da0e0ef          	jal	ra,22356 <__eqtf2>
   13b80:	7f82                	ld	t6,32(sp)
   13b82:	7f42                	ld	t5,48(sp)
   13b84:	7362                	ld	t1,56(sp)
   13b86:	e119                	bnez	a0,13b8c <_vfprintf_r+0x15f6>
   13b88:	4785                	li	a5,1
   13b8a:	d5be                	sw	a5,232(sp)
   13b8c:	00024bb7          	lui	s7,0x24
   13b90:	8f0b8793          	addi	a5,s7,-1808 # 238f0 <__clzdi2+0x1b4>
   13b94:	e4be                	sd	a5,72(sp)
   13b96:	020c1793          	slli	a5,s8,0x20
   13b9a:	9381                	srli	a5,a5,0x20
   13b9c:	0785                	addi	a5,a5,1
   13b9e:	97e6                	add	a5,a5,s9
   13ba0:	f53e                	sd	a5,168(sp)
   13ba2:	018c87bb          	addw	a5,s9,s8
   13ba6:	8de6                	mv	s11,s9
   13ba8:	c3be                	sw	a5,196(sp)
   13baa:	a819                	j	13bc0 <_vfprintf_r+0x162a>
   13bac:	4601                	li	a2,0
   13bae:	4681                	li	a3,0
   13bb0:	e0aa                	sd	a0,64(sp)
   13bb2:	7a40e0ef          	jal	ra,22356 <__eqtf2>
   13bb6:	6886                	ld	a7,64(sp)
   13bb8:	7342                	ld	t1,48(sp)
   13bba:	8fde                	mv	t6,s7
   13bbc:	8f46                	mv	t5,a7
   13bbe:	cd31                	beqz	a0,13c1a <_vfprintf_r+0x1684>
   13bc0:	66ca                	ld	a3,144(sp)
   13bc2:	4601                	li	a2,0
   13bc4:	857a                	mv	a0,t5
   13bc6:	85fe                	mv	a1,t6
   13bc8:	f81a                	sd	t1,48(sp)
   13bca:	16d0e0ef          	jal	ra,22536 <__multf3>
   13bce:	8bae                	mv	s7,a1
   13bd0:	f02a                	sd	a0,32(sp)
   13bd2:	7940f0ef          	jal	ra,23366 <__fixtfsi>
   13bd6:	0005099b          	sext.w	s3,a0
   13bda:	854e                	mv	a0,s3
   13bdc:	01b0f0ef          	jal	ra,233f6 <__floatsitf>
   13be0:	7782                	ld	a5,32(sp)
   13be2:	86ae                	mv	a3,a1
   13be4:	862a                	mv	a2,a0
   13be6:	85de                	mv	a1,s7
